   1               		.file	"main.c"
   2               	__SREG__ = 0x3f
   3               	__SP_H__ = 0x3e
   4               	__SP_L__ = 0x3d
   5               	__CCP__  = 0x34
   6               	__tmp_reg__ = 0
   7               	__zero_reg__ = 1
  15               	.Ltext0:
  16               	.global	__vector_18
  18               	__vector_18:
  19               	.LFB3:
  20               	.LM1:
  21 0000 1F92      		push __zero_reg__
  22 0002 0F92      		push r0
  23 0004 0FB6      		in r0,__SREG__
  24 0006 0F92      		push r0
  25 0008 1124      		clr __zero_reg__
  26 000a 2F93      		push r18
  27 000c 8F93      		push r24
  28 000e 9F93      		push r25
  29 0010 EF93      		push r30
  30 0012 FF93      		push r31
  31               	/* prologue: Signal */
  32               	/* frame size = 0 */
  33               	.LM2:
  34 0014 E091 0000 		lds r30,read_spot
  35 0018 F091 0000 		lds r31,(read_spot)+1
  36 001c 8091 C600 		lds r24,198
  37 0020 E050      		subi r30,lo8(-(input_buffer))
  38 0022 F040      		sbci r31,hi8(-(input_buffer))
  39 0024 8083      		st Z,r24
  40               	.LM3:
  41 0026 8091 0000 		lds r24,read_spot
  42 002a 9091 0000 		lds r25,(read_spot)+1
  43 002e 0196      		adiw r24,1
  44 0030 9093 0000 		sts (read_spot)+1,r25
  45 0034 8093 0000 		sts read_spot,r24
  46               	.LM4:
  47 0038 8BB1      		in r24,43-32
  48 003a 90E2      		ldi r25,lo8(32)
  49 003c 8927      		eor r24,r25
  50 003e 8BB9      		out 43-32,r24
  51               	.LM5:
  52 0040 8091 0000 		lds r24,read_spot
  53 0044 9091 0000 		lds r25,(read_spot)+1
  54 0048 8C5B      		subi r24,lo8(700)
  55 004a 9240      		sbci r25,hi8(700)
  56 004c 01F4      		brne .L3
  57 004e 1092 0000 		sts (read_spot)+1,__zero_reg__
  58 0052 1092 0000 		sts read_spot,__zero_reg__
  59               	.L3:
  60               	/* epilogue start */
  61               	.LM6:
  62 0056 FF91      		pop r31
  63 0058 EF91      		pop r30
  64 005a 9F91      		pop r25
  65 005c 8F91      		pop r24
  66 005e 2F91      		pop r18
  67 0060 0F90      		pop r0
  68 0062 0FBE      		out __SREG__,r0
  69 0064 0F90      		pop r0
  70 0066 1F90      		pop __zero_reg__
  71 0068 1895      		reti
  72               	.LFE3:
  74               	.global	EEPROM_write
  76               	EEPROM_write:
  77               	.LFB17:
  78               	.LM7:
  79               	/* prologue: function */
  80               	/* frame size = 0 */
  81               	.LVL0:
  82               	.L5:
  83               	.LM8:
  84 006a F999      		sbic 63-32,1
  85 006c 00C0      		rjmp .L5
  86               	.LM9:
  87 006e 92BD      		out 66-32,r25
  88               	.LVL1:
  89               	.LM10:
  90 0070 81BD      		out 65-32,r24
  91               	.LM11:
  92 0072 60BD      		out 64-32,r22
  93               	.LM12:
  94 0074 FA9A      		sbi 63-32,2
  95               	.LM13:
  96 0076 F99A      		sbi 63-32,1
  97               	/* epilogue start */
  98               	.LM14:
  99 0078 0895      		ret
 100               	.LFE17:
 102               	.global	set_default_settings
 104               	set_default_settings:
 105               	.LFB8:
 106               	.LM15:
 107               	/* prologue: function */
 108               	/* frame size = 0 */
 109               	.LM16:
 110 007a 81E0      		ldi r24,lo8(1)
 111 007c 90E0      		ldi r25,hi8(1)
 112 007e 61E0      		ldi r22,lo8(1)
 113 0080 0E94 0000 		call EEPROM_write
 114               	.LM17:
 115 0084 82E0      		ldi r24,lo8(2)
 116 0086 90E0      		ldi r25,hi8(2)
 117 0088 60E0      		ldi r22,lo8(0)
 118 008a 0E94 0000 		call EEPROM_write
 119               	.LM18:
 120 008e 85E0      		ldi r24,lo8(5)
 121 0090 90E0      		ldi r25,hi8(5)
 122 0092 6AE1      		ldi r22,lo8(26)
 123 0094 0E94 0000 		call EEPROM_write
 124               	.LM19:
 125 0098 86E0      		ldi r24,lo8(6)
 126 009a 90E0      		ldi r25,hi8(6)
 127 009c 63E0      		ldi r22,lo8(3)
 128 009e 0E94 0000 		call EEPROM_write
 129               	/* epilogue start */
 130               	.LM20:
 131 00a2 0895      		ret
 132               	.LFE8:
 134               	.global	EEPROM_read
 136               	EEPROM_read:
 137               	.LFB18:
 138               	.LM21:
 139               	/* prologue: function */
 140               	/* frame size = 0 */
 141               	.LVL2:
 142               	.L11:
 143               	.LM22:
 144 00a4 F999      		sbic 63-32,1
 145 00a6 00C0      		rjmp .L11
 146               	.LM23:
 147 00a8 92BD      		out 66-32,r25
 148               	.LVL3:
 149               	.LM24:
 150 00aa 81BD      		out 65-32,r24
 151               	.LM25:
 152 00ac F89A      		sbi 63-32,0
 153               	.LM26:
 154 00ae 80B5      		in r24,64-32
 155               	.LVL4:
 156               	/* epilogue start */
 157               	.LM27:
 158 00b0 0895      		ret
 159               	.LFE18:
 161               	.global	read_system_settings
 163               	read_system_settings:
 164               	.LFB9:
 165               	.LM28:
 166               	/* prologue: function */
 167               	/* frame size = 0 */
 168               	.LM29:
 169 00b2 81E0      		ldi r24,lo8(1)
 170 00b4 90E0      		ldi r25,hi8(1)
 171 00b6 0E94 0000 		call EEPROM_read
 172 00ba 8093 0000 		sts setting_uart_speed,r24
 173               	.LM30:
 174 00be 8B30      		cpi r24,lo8(11)
 175 00c0 00F0      		brlo .L15
 176               	.LM31:
 177 00c2 81E0      		ldi r24,lo8(1)
 178 00c4 8093 0000 		sts setting_uart_speed,r24
 179               	.LM32:
 180 00c8 81E0      		ldi r24,lo8(1)
 181 00ca 90E0      		ldi r25,hi8(1)
 182 00cc 61E0      		ldi r22,lo8(1)
 183 00ce 0E94 0000 		call EEPROM_write
 184               	.L15:
 185               	.LM33:
 186 00d2 82E0      		ldi r24,lo8(2)
 187 00d4 90E0      		ldi r25,hi8(2)
 188 00d6 0E94 0000 		call EEPROM_read
 189 00da 8093 0000 		sts setting_system_mode,r24
 190               	.LM34:
 191 00de 8630      		cpi r24,lo8(6)
 192 00e0 00F0      		brlo .L16
 193               	.LM35:
 194 00e2 1092 0000 		sts setting_system_mode,__zero_reg__
 195               	.LM36:
 196 00e6 82E0      		ldi r24,lo8(2)
 197 00e8 90E0      		ldi r25,hi8(2)
 198 00ea 60E0      		ldi r22,lo8(0)
 199 00ec 0E94 0000 		call EEPROM_write
 200               	.L16:
 201               	.LM37:
 202 00f0 85E0      		ldi r24,lo8(5)
 203 00f2 90E0      		ldi r25,hi8(5)
 204 00f4 0E94 0000 		call EEPROM_read
 205 00f8 8093 0000 		sts setting_escape_character,r24
 206               	.LM38:
 207 00fc 8150      		subi r24,lo8(-(-1))
 208 00fe 8E3F      		cpi r24,lo8(-2)
 209 0100 00F0      		brlo .L17
 210               	.LM39:
 211 0102 8AE1      		ldi r24,lo8(26)
 212 0104 8093 0000 		sts setting_escape_character,r24
 213               	.LM40:
 214 0108 85E0      		ldi r24,lo8(5)
 215 010a 90E0      		ldi r25,hi8(5)
 216 010c 6AE1      		ldi r22,lo8(26)
 217 010e 0E94 0000 		call EEPROM_write
 218               	.L17:
 219               	.LM41:
 220 0112 86E0      		ldi r24,lo8(6)
 221 0114 90E0      		ldi r25,hi8(6)
 222 0116 0E94 0000 		call EEPROM_read
 223 011a 8093 0000 		sts setting_max_escape_character,r24
 224               	.LM42:
 225 011e 8150      		subi r24,lo8(-(-1))
 226 0120 8E3F      		cpi r24,lo8(-2)
 227 0122 00F0      		brlo .L19
 228               	.LM43:
 229 0124 83E0      		ldi r24,lo8(3)
 230 0126 8093 0000 		sts setting_max_escape_character,r24
 231               	.LM44:
 232 012a 86E0      		ldi r24,lo8(6)
 233 012c 90E0      		ldi r25,hi8(6)
 234 012e 63E0      		ldi r22,lo8(3)
 235 0130 0E94 0000 		call EEPROM_write
 236               	.L19:
 237 0134 0895      		ret
 238               	.LFE9:
 240               	.global	delay_us
 242               	delay_us:
 243               	.LFB20:
 244               	.LM45:
 245               	.LVL5:
 246               	/* prologue: function */
 247               	/* frame size = 0 */
 248               	.LM46:
 249 0136 9C01      		movw r18,r24
 250 0138 220F      		lsl r18
 251 013a 331F      		rol r19
 252               	.LVL6:
 253               	.LM47:
 254 013c 81E0      		ldi r24,lo8(1)
 255 013e 00C0      		rjmp .L21
 256               	.L23:
 257 0140 85BB      		out 53-32,r24
 258               	.LM48:
 259 0142 16BC      		out 70-32,__zero_reg__
 260               	.L22:
 261               	.LM49:
 262 0144 A89B      		sbis 53-32,0
 263 0146 00C0      		rjmp .L22
 264               	.LM50:
 265 0148 2050      		subi r18,lo8(-(-256))
 266 014a 3140      		sbci r19,hi8(-(-256))
 267               	.L21:
 268               	.LM51:
 269 014c 91E0      		ldi r25,hi8(257)
 270 014e 2130      		cpi r18,lo8(257)
 271 0150 3907      		cpc r19,r25
 272 0152 00F4      		brsh .L23
 273               	.LM52:
 274 0154 81E0      		ldi r24,lo8(1)
 275 0156 85BB      		out 53-32,r24
 276               	.LM53:
 277 0158 822F      		mov r24,r18
 278               	.LVL7:
 279 015a 8195      		neg r24
 280 015c 86BD      		out 70-32,r24
 281               	.L24:
 282               	.LM54:
 283 015e A89B      		sbis 53-32,0
 284 0160 00C0      		rjmp .L24
 285               	/* epilogue start */
 286               	.LM55:
 287 0162 0895      		ret
 288               	.LFE20:
 290               	.global	delay_ms
 292               	delay_ms:
 293               	.LFB21:
 294               	.LM56:
 295               	.LVL8:
 296 0164 CF93      		push r28
 297 0166 DF93      		push r29
 298               	/* prologue: function */
 299               	/* frame size = 0 */
 300 0168 EC01      		movw r28,r24
 301 016a 00C0      		rjmp .L29
 302               	.LVL9:
 303               	.L30:
 304               	.LM57:
 305 016c 88EE      		ldi r24,lo8(1000)
 306 016e 93E0      		ldi r25,hi8(1000)
 307 0170 0E94 0000 		call delay_us
 308               	.LM58:
 309 0174 2197      		sbiw r28,1
 310               	.LVL10:
 311               	.L29:
 312 0176 2097      		sbiw r28,0
 313 0178 01F4      		brne .L30
 314               	/* epilogue start */
 315               	.LM59:
 316 017a DF91      		pop r29
 317 017c CF91      		pop r28
 318               	.LVL11:
 319 017e 0895      		ret
 320               	.LFE21:
 322               	.global	blink_error
 324               	blink_error:
 325               	.LFB19:
 326               	.LM60:
 327               	.LVL12:
 328 0180 0F93      		push r16
 329 0182 1F93      		push r17
 330 0184 CF93      		push r28
 331 0186 DF93      		push r29
 332               	/* prologue: function */
 333               	/* frame size = 0 */
 334               	.LM61:
 335 0188 C0E0      		ldi r28,lo8(0)
 336 018a D0E0      		ldi r29,hi8(0)
 337               	.LVL13:
 338               	.LBB64:
 339               	.LM62:
 340 018c 082F      		mov r16,r24
 341 018e 10E0      		ldi r17,lo8(0)
 342               	.LVL14:
 343 0190 00C0      		rjmp .L36
 344               	.LVL15:
 345               	.L34:
 346               	.LM63:
 347 0192 5D9A      		sbi 43-32,5
 348               	.LM64:
 349 0194 84E6      		ldi r24,lo8(100)
 350 0196 90E0      		ldi r25,hi8(100)
 351 0198 0E94 0000 		call delay_ms
 352               	.LM65:
 353 019c 5D98      		cbi 43-32,5
 354               	.LM66:
 355 019e 84E6      		ldi r24,lo8(100)
 356 01a0 90E0      		ldi r25,hi8(100)
 357 01a2 0E94 0000 		call delay_ms
 358               	.LM67:
 359 01a6 2196      		adiw r28,1
 360               	.LVL16:
 361               	.L36:
 362 01a8 C017      		cp r28,r16
 363 01aa D107      		cpc r29,r17
 364 01ac 04F0      		brlt .L34
 365               	.LBE64:
 366               	.LM68:
 367 01ae 80ED      		ldi r24,lo8(2000)
 368 01b0 97E0      		ldi r25,hi8(2000)
 369 01b2 0E94 0000 		call delay_ms
 370 01b6 C0E0      		ldi r28,lo8(0)
 371 01b8 D0E0      		ldi r29,hi8(0)
 372 01ba 00C0      		rjmp .L36
 373               	.LFE19:
 375               	.global	check_emergency_reset
 377               	check_emergency_reset:
 378               	.LFB10:
 379               	.LM69:
 380 01bc 0F93      		push r16
 381 01be 1F93      		push r17
 382               	/* prologue: function */
 383               	/* frame size = 0 */
 384               	.LM70:
 385 01c0 509A      		sbi 42-32,0
 386               	.LM71:
 387 01c2 589A      		sbi 43-32,0
 388               	.LM72:
 389 01c4 4899      		sbic 41-32,0
 390 01c6 00C0      		rjmp .L38
 391               	.LM73:
 392 01c8 459A      		sbi 40-32,5
 393 01ca 10E0      		ldi r17,lo8(0)
 394               	.LVL17:
 395               	.LBB65:
 396               	.LM74:
 397 01cc 00E2      		ldi r16,lo8(32)
 398               	.L39:
 399               	.LM75:
 400 01ce 89E1      		ldi r24,lo8(25)
 401 01d0 90E0      		ldi r25,hi8(25)
 402 01d2 0E94 0000 		call delay_ms
 403               	.LM76:
 404 01d6 8BB1      		in r24,43-32
 405 01d8 8027      		eor r24,r16
 406 01da 8BB9      		out 43-32,r24
 407               	.LM77:
 408 01dc 4899      		sbic 41-32,0
 409 01de 00C0      		rjmp .L38
 410               	.LM78:
 411 01e0 89E1      		ldi r24,lo8(25)
 412 01e2 90E0      		ldi r25,hi8(25)
 413 01e4 0E94 0000 		call delay_ms
 414               	.LM79:
 415 01e8 85B1      		in r24,37-32
 416 01ea 8027      		eor r24,r16
 417 01ec 85B9      		out 37-32,r24
 418               	.LM80:
 419 01ee 4899      		sbic 41-32,0
 420 01f0 00C0      		rjmp .L38
 421               	.LM81:
 422 01f2 1F5F      		subi r17,lo8(-(1))
 423 01f4 1832      		cpi r17,lo8(40)
 424 01f6 01F4      		brne .L39
 425 01f8 81E0      		ldi r24,lo8(1)
 426 01fa 00C0      		rjmp .L40
 427               	.L38:
 428 01fc 80E0      		ldi r24,lo8(0)
 429               	.L40:
 430               	/* epilogue start */
 431               	.LBE65:
 432               	.LM82:
 433 01fe 1F91      		pop r17
 434               	.LVL18:
 435 0200 0F91      		pop r16
 436 0202 0895      		ret
 437               	.LFE10:
 439               	.global	count_cmd_args
 441               	count_cmd_args:
 442               	.LFB30:
 443               	.LM83:
 444               	/* prologue: function */
 445               	/* frame size = 0 */
 446               	.LM84:
 447 0204 E0E0      		ldi r30,lo8(cmd_arg)
 448 0206 F0E0      		ldi r31,hi8(cmd_arg)
 449 0208 20E0      		ldi r18,lo8(0)
 450               	.LVL19:
 451               	.L45:
 452               	.LM85:
 453 020a 8081      		ld r24,Z
 454 020c 9181      		ldd r25,Z+1
 455 020e 892B      		or r24,r25
 456 0210 01F0      		breq .L44
 457 0212 8281      		ldd r24,Z+2
 458 0214 8111      		cpse r24,__zero_reg__
 459               	.LM86:
 460 0216 2F5F      		subi r18,lo8(-(1))
 461               	.L44:
 462 0218 3396      		adiw r30,3
 463               	.LM87:
 464 021a 80E0      		ldi r24,hi8(cmd_arg+12)
 465 021c E030      		cpi r30,lo8(cmd_arg+12)
 466 021e F807      		cpc r31,r24
 467 0220 01F4      		brne .L45
 468               	.LM88:
 469 0222 822F      		mov r24,r18
 470               	/* epilogue start */
 471 0224 0895      		ret
 472               	.LFE30:
 474               	.global	add_cmd_arg
 476               	add_cmd_arg:
 477               	.LFB32:
 478               	.LM89:
 479               	.LVL20:
 480 0226 1F93      		push r17
 481 0228 CF93      		push r28
 482 022a DF93      		push r29
 483               	/* prologue: function */
 484               	/* frame size = 0 */
 485 022c EC01      		movw r28,r24
 486 022e 162F      		mov r17,r22
 487               	.LM90:
 488 0230 0E94 0000 		call count_cmd_args
 489               	.LVL21:
 490               	.LM91:
 491 0234 8430      		cpi r24,lo8(4)
 492               	.LVL22:
 493 0236 00F4      		brsh .L50
 494               	.LM92:
 495 0238 90E0      		ldi r25,lo8(0)
 496 023a FC01      		movw r30,r24
 497               	.LVL23:
 498 023c EE0F      		lsl r30
 499 023e FF1F      		rol r31
 500 0240 E80F      		add r30,r24
 501 0242 F91F      		adc r31,r25
 502 0244 E050      		subi r30,lo8(-(cmd_arg))
 503 0246 F040      		sbci r31,hi8(-(cmd_arg))
 504 0248 D183      		std Z+1,r29
 505 024a C083      		st Z,r28
 506               	.LM93:
 507 024c 1283      		std Z+2,r17
 508               	.LVL24:
 509               	.L50:
 510               	/* epilogue start */
 511               	.LM94:
 512 024e DF91      		pop r29
 513 0250 CF91      		pop r28
 514               	.LVL25:
 515 0252 1F91      		pop r17
 516               	.LVL26:
 517 0254 0895      		ret
 518               	.LFE32:
 520               	.global	is_number
 522               	is_number:
 523               	.LFB35:
 524               	.LM95:
 525               	.LVL27:
 526               	/* prologue: function */
 527               	/* frame size = 0 */
 528 0256 AC01      		movw r20,r24
 529               	.LM96:
 530 0258 20E0      		ldi r18,lo8(0)
 531 025a 30E0      		ldi r19,hi8(0)
 532               	.LVL28:
 533               	.LBB66:
 534               	.LM97:
 535 025c 70E0      		ldi r23,lo8(0)
 536               	.LVL29:
 537 025e 00C0      		rjmp .L52
 538               	.LVL30:
 539               	.L55:
 540               	.LM98:
 541 0260 FA01      		movw r30,r20
 542 0262 E20F      		add r30,r18
 543 0264 F31F      		adc r31,r19
 544 0266 8081      		ld r24,Z
 545 0268 90E0      		ldi r25,lo8(0)
 546 026a C097      		sbiw r24,48
 547 026c 0A97      		sbiw r24,10
 548 026e 00F0      		brlo .L53
 549 0270 40E0      		ldi r20,lo8(0)
 550 0272 50E0      		ldi r21,hi8(0)
 551 0274 00C0      		rjmp .L54
 552               	.L53:
 553               	.LM99:
 554 0276 2F5F      		subi r18,lo8(-(1))
 555 0278 3F4F      		sbci r19,hi8(-(1))
 556               	.LVL31:
 557               	.L52:
 558 027a 2617      		cp r18,r22
 559 027c 3707      		cpc r19,r23
 560 027e 04F0      		brlt .L55
 561               	.L54:
 562               	.LBE66:
 563               	.LM100:
 564 0280 CA01      		movw r24,r20
 565               	.LVL32:
 566               	/* epilogue start */
 567 0282 0895      		ret
 568               	.LFE35:
 570               	.global	wildcmp
 572               	wildcmp:
 573               	.LFB36:
 574               	.LM101:
 575               	.LVL33:
 576               	/* prologue: function */
 577               	/* frame size = 0 */
 578 0284 FC01      		movw r30,r24
 579 0286 DB01      		movw r26,r22
 580 0288 00C0      		rjmp .L58
 581               	.LVL34:
 582               	.L62:
 583               	.LM102:
 584 028a 8917      		cp r24,r25
 585 028c 01F0      		breq .L59
 586 028e 8F33      		cpi r24,lo8(63)
 587 0290 01F0      		breq .L59
 588 0292 80E0      		ldi r24,lo8(0)
 589 0294 0895      		ret
 590               	.L59:
 591               	.LM103:
 592 0296 3196      		adiw r30,1
 593               	.LM104:
 594 0298 1196      		adiw r26,1
 595               	.LVL35:
 596               	.L58:
 597               	.LM105:
 598 029a 9C91      		ld r25,X
 599 029c 9923      		tst r25
 600 029e 01F0      		breq .L61
 601 02a0 8081      		ld r24,Z
 602 02a2 8A32      		cpi r24,lo8(42)
 603 02a4 01F4      		brne .L62
 604 02a6 00C0      		rjmp .L61
 605               	.LVL36:
 606               	.L68:
 607               	.LM106:
 608 02a8 8081      		ld r24,Z
 609 02aa 8A32      		cpi r24,lo8(42)
 610 02ac 01F4      		brne .L63
 611               	.LM107:
 612 02ae 3196      		adiw r30,1
 613 02b0 8081      		ld r24,Z
 614 02b2 8823      		tst r24
 615 02b4 01F4      		brne .L64
 616 02b6 81E0      		ldi r24,lo8(1)
 617 02b8 0895      		ret
 618               	.L64:
 619               	.LM108:
 620 02ba 9D01      		movw r18,r26
 621 02bc 2F5F      		subi r18,lo8(-(1))
 622 02be 3F4F      		sbci r19,hi8(-(1))
 623 02c0 AF01      		movw r20,r30
 624 02c2 00C0      		rjmp .L73
 625               	.L63:
 626               	.LM109:
 627 02c4 8917      		cp r24,r25
 628 02c6 01F0      		breq .L66
 629 02c8 8F33      		cpi r24,lo8(63)
 630 02ca 01F4      		brne .L67
 631               	.L66:
 632               	.LM110:
 633 02cc 3196      		adiw r30,1
 634               	.LM111:
 635 02ce 1196      		adiw r26,1
 636 02d0 00C0      		rjmp .L73
 637               	.LVL37:
 638               	.L67:
 639               	.LM112:
 640 02d2 FA01      		movw r30,r20
 641 02d4 D901      		movw r26,r18
 642 02d6 2F5F      		subi r18,lo8(-(1))
 643 02d8 3F4F      		sbci r19,hi8(-(1))
 644 02da 00C0      		rjmp .L73
 645               	.LVL38:
 646               	.L61:
 647 02dc 20E0      		ldi r18,lo8(0)
 648 02de 30E0      		ldi r19,hi8(0)
 649               	.LVL39:
 650 02e0 40E0      		ldi r20,lo8(0)
 651 02e2 50E0      		ldi r21,hi8(0)
 652               	.LVL40:
 653               	.L73:
 654               	.LM113:
 655 02e4 9C91      		ld r25,X
 656 02e6 9923      		tst r25
 657 02e8 01F4      		brne .L68
 658 02ea 00C0      		rjmp .L74
 659               	.L70:
 660               	.LM114:
 661 02ec 3196      		adiw r30,1
 662               	.LVL41:
 663               	.L74:
 664               	.LM115:
 665 02ee 9081      		ld r25,Z
 666 02f0 9A32      		cpi r25,lo8(42)
 667 02f2 01F0      		breq .L70
 668               	.LM116:
 669 02f4 80E0      		ldi r24,lo8(0)
 670 02f6 9923      		tst r25
 671 02f8 01F4      		brne .L60
 672 02fa 81E0      		ldi r24,lo8(1)
 673               	.L60:
 674               	.LM117:
 675 02fc 0895      		ret
 676               	.LFE36:
 678               	.global	print_menu
 680               	print_menu:
 681               	.LFB27:
 682               	.LM118:
 683               	/* prologue: function */
 684               	/* frame size = 0 */
 685               	.LM119:
 686 02fe 80E0      		ldi r24,lo8(__c.2797)
 687 0300 90E0      		ldi r25,hi8(__c.2797)
 688 0302 0E94 0000 		call uart_puts_p
 689               	.LM120:
 690 0306 80E0      		ldi r24,lo8(__c.2799)
 691 0308 90E0      		ldi r25,hi8(__c.2799)
 692 030a 0E94 0000 		call uart_puts_p
 693               	.LM121:
 694 030e 80E0      		ldi r24,lo8(__c.2801)
 695 0310 90E0      		ldi r25,hi8(__c.2801)
 696 0312 0E94 0000 		call uart_puts_p
 697               	.LM122:
 698 0316 80E0      		ldi r24,lo8(__c.2803)
 699 0318 90E0      		ldi r25,hi8(__c.2803)
 700 031a 0E94 0000 		call uart_puts_p
 701               	.LM123:
 702 031e 80E0      		ldi r24,lo8(__c.2805)
 703 0320 90E0      		ldi r25,hi8(__c.2805)
 704 0322 0E94 0000 		call uart_puts_p
 705               	.LM124:
 706 0326 80E0      		ldi r24,lo8(__c.2807)
 707 0328 90E0      		ldi r25,hi8(__c.2807)
 708 032a 0E94 0000 		call uart_puts_p
 709               	.LM125:
 710 032e 80E0      		ldi r24,lo8(__c.2809)
 711 0330 90E0      		ldi r25,hi8(__c.2809)
 712 0332 0E94 0000 		call uart_puts_p
 713               	.LM126:
 714 0336 80E0      		ldi r24,lo8(__c.2811)
 715 0338 90E0      		ldi r25,hi8(__c.2811)
 716 033a 0E94 0000 		call uart_puts_p
 717               	.LM127:
 718 033e 80E0      		ldi r24,lo8(__c.2813)
 719 0340 90E0      		ldi r25,hi8(__c.2813)
 720 0342 0E94 0000 		call uart_puts_p
 721               	.LM128:
 722 0346 80E0      		ldi r24,lo8(__c.2815)
 723 0348 90E0      		ldi r25,hi8(__c.2815)
 724 034a 0E94 0000 		call uart_puts_p
 725               	.LM129:
 726 034e 80E0      		ldi r24,lo8(__c.2817)
 727 0350 90E0      		ldi r25,hi8(__c.2817)
 728 0352 0E94 0000 		call uart_puts_p
 729               	.LM130:
 730 0356 80E0      		ldi r24,lo8(__c.2819)
 731 0358 90E0      		ldi r25,hi8(__c.2819)
 732 035a 0E94 0000 		call uart_puts_p
 733               	.LM131:
 734 035e 80E0      		ldi r24,lo8(__c.2821)
 735 0360 90E0      		ldi r25,hi8(__c.2821)
 736 0362 0E94 0000 		call uart_puts_p
 737               	.LM132:
 738 0366 80E0      		ldi r24,lo8(__c.2823)
 739 0368 90E0      		ldi r25,hi8(__c.2823)
 740 036a 0E94 0000 		call uart_puts_p
 741               	.LM133:
 742 036e 80E0      		ldi r24,lo8(__c.2825)
 743 0370 90E0      		ldi r25,hi8(__c.2825)
 744 0372 0E94 0000 		call uart_puts_p
 745               	.LM134:
 746 0376 80E0      		ldi r24,lo8(__c.2827)
 747 0378 90E0      		ldi r25,hi8(__c.2827)
 748 037a 0E94 0000 		call uart_puts_p
 749               	.LM135:
 750 037e 80E0      		ldi r24,lo8(__c.2829)
 751 0380 90E0      		ldi r25,hi8(__c.2829)
 752 0382 0E94 0000 		call uart_puts_p
 753               	.LM136:
 754 0386 80E0      		ldi r24,lo8(__c.2831)
 755 0388 90E0      		ldi r25,hi8(__c.2831)
 756 038a 0E94 0000 		call uart_puts_p
 757               	.LM137:
 758 038e 80E0      		ldi r24,lo8(__c.2833)
 759 0390 90E0      		ldi r25,hi8(__c.2833)
 760 0392 0E94 0000 		call uart_puts_p
 761               	/* epilogue start */
 762               	.LM138:
 763 0396 0895      		ret
 764               	.LFE27:
 766               	.global	too_many_arguments_error
 768               	too_many_arguments_error:
 769               	.LFB34:
 770               	.LM139:
 771               	.LVL42:
 772 0398 0F93      		push r16
 773 039a 1F93      		push r17
 774 039c CF93      		push r28
 775 039e DF93      		push r29
 776               	/* prologue: function */
 777               	/* frame size = 0 */
 778 03a0 182F      		mov r17,r24
 779 03a2 EB01      		movw r28,r22
 780               	.LM140:
 781 03a4 0E94 0000 		call count_cmd_args
 782               	.LVL43:
 783 03a8 082F      		mov r16,r24
 784               	.LVL44:
 785 03aa 1817      		cp r17,r24
 786 03ac 00F0      		brlo .L78
 787               	.LVL45:
 788 03ae 80E0      		ldi r24,lo8(0)
 789               	.LVL46:
 790 03b0 00C0      		rjmp .L79
 791               	.LVL47:
 792               	.L78:
 793               	.LM141:
 794 03b2 80E0      		ldi r24,lo8(__c.3066)
 795 03b4 90E0      		ldi r25,hi8(__c.3066)
 796               	.LVL48:
 797 03b6 0E94 0000 		call uart_puts_p
 798               	.LM142:
 799 03ba 802F      		mov r24,r16
 800 03bc 90E0      		ldi r25,lo8(0)
 801 03be 0E94 0000 		call uart_putw_dec
 802               	.LM143:
 803 03c2 80E0      		ldi r24,lo8(__c.3068)
 804 03c4 90E0      		ldi r25,hi8(__c.3068)
 805 03c6 0E94 0000 		call uart_puts_p
 806               	.LM144:
 807 03ca CE01      		movw r24,r28
 808 03cc 0E94 0000 		call uart_puts
 809               	.LM145:
 810 03d0 8AE0      		ldi r24,lo8(10)
 811 03d2 0E94 0000 		call uart_putc
 812 03d6 81E0      		ldi r24,lo8(1)
 813               	.L79:
 814               	/* epilogue start */
 815               	.LM146:
 816 03d8 DF91      		pop r29
 817 03da CF91      		pop r28
 818               	.LVL49:
 819 03dc 1F91      		pop r17
 820               	.LVL50:
 821 03de 0F91      		pop r16
 822               	.LVL51:
 823 03e0 0895      		ret
 824               	.LFE34:
 826               	.global	split_cmd_line_args
 828               	split_cmd_line_args:
 829               	.LFB33:
 830               	.LM147:
 831               	.LVL52:
 832 03e2 EF92      		push r14
 833 03e4 FF92      		push r15
 834 03e6 0F93      		push r16
 835 03e8 1F93      		push r17
 836 03ea CF93      		push r28
 837 03ec DF93      		push r29
 838               	/* prologue: function */
 839               	/* frame size = 0 */
 840 03ee 7C01      		movw r14,r24
 841 03f0 062F      		mov r16,r22
 842               	.LM148:
 843 03f2 8CE0      		ldi r24,lo8(12)
 844               	.LVL53:
 845 03f4 E0E0      		ldi r30,lo8(cmd_arg)
 846 03f6 F0E0      		ldi r31,hi8(cmd_arg)
 847 03f8 DF01      		movw r26,r30
 848 03fa 1D92      		st X+,__zero_reg__
 849 03fc 8A95      	        dec r24
 850 03fe 01F4      		brne .-6
 851 0400 40E0      		ldi r20,lo8(0)
 852               	.LVL54:
 853 0402 11E0      		ldi r17,lo8(1)
 854               	.LVL55:
 855               	.LM149:
 856 0404 C62F      		mov r28,r22
 857 0406 D0E0      		ldi r29,lo8(0)
 858               	.LVL56:
 859 0408 00C0      		rjmp .L82
 860               	.LVL57:
 861               	.L86:
 862               	.LM150:
 863 040a 212F      		mov r18,r17
 864 040c 30E0      		ldi r19,lo8(0)
 865 040e F701      		movw r30,r14
 866 0410 E20F      		add r30,r18
 867 0412 F31F      		adc r31,r19
 868 0414 8081      		ld r24,Z
 869 0416 8032      		cpi r24,lo8(32)
 870 0418 01F0      		breq .L83
 871               	.LVL58:
 872 041a 2F5F      		subi r18,lo8(-(1))
 873 041c 3F4F      		sbci r19,hi8(-(1))
 874               	.LVL59:
 875 041e 2C17      		cp r18,r28
 876 0420 3D07      		cpc r19,r29
 877 0422 01F4      		brne .L84
 878               	.LVL60:
 879               	.L83:
 880               	.LM151:
 881 0424 812F      		mov r24,r17
 882 0426 90E0      		ldi r25,lo8(0)
 883               	.LVL61:
 884 0428 0196      		adiw r24,1
 885               	.LVL62:
 886 042a 8C17      		cp r24,r28
 887 042c 9D07      		cpc r25,r29
 888 042e 01F4      		brne .L85
 889               	.LVL63:
 890 0430 102F      		mov r17,r16
 891               	.LVL64:
 892               	.L85:
 893               	.LM152:
 894 0432 612F      		mov r22,r17
 895 0434 641B      		sub r22,r20
 896 0436 C701      		movw r24,r14
 897               	.LVL65:
 898 0438 840F      		add r24,r20
 899 043a 911D      		adc r25,__zero_reg__
 900 043c 0E94 0000 		call add_cmd_arg
 901               	.LVL66:
 902               	.LM153:
 903 0440 1F5F      		subi r17,lo8(-(1))
 904 0442 412F      		mov r20,r17
 905               	.LVL67:
 906               	.L84:
 907               	.LM154:
 908 0444 1F5F      		subi r17,lo8(-(1))
 909               	.LVL68:
 910               	.L82:
 911               	.LM155:
 912 0446 1017      		cp r17,r16
 913 0448 00F0      		brlo .L86
 914               	.LVL69:
 915               	.LM156:
 916 044a 0E94 0000 		call count_cmd_args
 917               	.LVL70:
 918               	/* epilogue start */
 919               	.LM157:
 920 044e DF91      		pop r29
 921               	.LVL71:
 922 0450 CF91      		pop r28
 923 0452 1F91      		pop r17
 924               	.LVL72:
 925 0454 0F91      		pop r16
 926               	.LVL73:
 927 0456 FF90      		pop r15
 928 0458 EF90      		pop r14
 929               	.LVL74:
 930 045a 0895      		ret
 931               	.LFE33:
 933               	.global	get_cmd_arg
 935               	get_cmd_arg:
 936               	.LFB31:
 937               	.LM158:
 938               	.LVL75:
 939               	/* prologue: function */
 940               	/* frame size = 0 */
 941 045c 982F      		mov r25,r24
 942               	.LM159:
 943 045e 89E1      		ldi r24,lo8(25)
 944               	.LVL76:
 945 0460 E0E0      		ldi r30,lo8(general_buffer)
 946 0462 F0E0      		ldi r31,hi8(general_buffer)
 947 0464 DF01      		movw r26,r30
 948 0466 1D92      		st X+,__zero_reg__
 949 0468 8A95      	        dec r24
 950 046a 01F4      		brne .-6
 951               	.LM160:
 952 046c 9430      		cpi r25,lo8(4)
 953 046e 00F4      		brsh .L89
 954               	.LM161:
 955 0470 892F      		mov r24,r25
 956 0472 90E0      		ldi r25,lo8(0)
 957               	.LVL77:
 958 0474 FC01      		movw r30,r24
 959 0476 EE0F      		lsl r30
 960 0478 FF1F      		rol r31
 961 047a E80F      		add r30,r24
 962 047c F91F      		adc r31,r25
 963 047e E050      		subi r30,lo8(-(cmd_arg))
 964 0480 F040      		sbci r31,hi8(-(cmd_arg))
 965 0482 6081      		ld r22,Z
 966 0484 7181      		ldd r23,Z+1
 967 0486 6115      		cp r22,__zero_reg__
 968 0488 7105      		cpc r23,__zero_reg__
 969 048a 01F0      		breq .L89
 970 048c 4281      		ldd r20,Z+2
 971 048e 4423      		tst r20
 972 0490 01F0      		breq .L89
 973               	.LM162:
 974 0492 4A31      		cpi r20,lo8(26)
 975 0494 00F0      		brlo .L90
 976 0496 49E1      		ldi r20,lo8(25)
 977 0498 50E0      		ldi r21,hi8(25)
 978 049a 00C0      		rjmp .L91
 979               	.L90:
 980 049c 50E0      		ldi r21,lo8(0)
 981               	.L91:
 982 049e 80E0      		ldi r24,lo8(general_buffer)
 983 04a0 90E0      		ldi r25,hi8(general_buffer)
 984 04a2 0E94 0000 		call strncpy
 985 04a6 9C01      		movw r18,r24
 986 04a8 00C0      		rjmp .L92
 987               	.LVL78:
 988               	.L89:
 989 04aa 20E0      		ldi r18,lo8(0)
 990 04ac 30E0      		ldi r19,hi8(0)
 991               	.L92:
 992               	.LM163:
 993 04ae C901      		movw r24,r18
 994               	/* epilogue start */
 995 04b0 0895      		ret
 996               	.LFE31:
 999               	read_line:
 1000               	.LFB16:
 1001               	.LM164:
 1002               	.LVL79:
 1003 04b2 BF92      		push r11
 1004 04b4 CF92      		push r12
 1005 04b6 DF92      		push r13
 1006 04b8 EF92      		push r14
 1007 04ba FF92      		push r15
 1008 04bc 0F93      		push r16
 1009 04be 1F93      		push r17
 1010 04c0 CF93      		push r28
 1011 04c2 DF93      		push r29
 1012               	/* prologue: function */
 1013               	/* frame size = 0 */
 1014 04c4 EC01      		movw r28,r24
 1015 04c6 B62E      		mov r11,r22
 1016               	.LM165:
 1017 04c8 60E0      		ldi r22,lo8(0)
 1018 04ca 70E0      		ldi r23,hi8(0)
 1019               	.LVL80:
 1020 04cc 4B2D      		mov r20,r11
 1021 04ce 50E0      		ldi r21,lo8(0)
 1022 04d0 0E94 0000 		call memset
 1023               	.LVL81:
 1024 04d4 00E0      		ldi r16,lo8(0)
 1025               	.LVL82:
 1026               	.LM166:
 1027 04d6 CB2C      		mov r12,r11
 1028 04d8 DD24      		clr r13
 1029 04da 0894      		sec
 1030 04dc C108      		sbc r12,__zero_reg__
 1031 04de D108      		sbc r13,__zero_reg__
 1032 04e0 00C0      		rjmp .L104
 1033               	.LVL83:
 1034               	.L100:
 1035               	.LBB67:
 1036               	.LM167:
 1037 04e2 0E94 0000 		call uart_getc
 1038 04e6 182F      		mov r17,r24
 1039               	.LM168:
 1040 04e8 8830      		cpi r24,lo8(8)
 1041 04ea 01F0      		breq .L96
 1042               	.LVL84:
 1043 04ec 8F37      		cpi r24,lo8(127)
 1044 04ee 01F4      		brne .L97
 1045               	.L96:
 1046               	.LM169:
 1047 04f0 0023      		tst r16
 1048 04f2 01F0      		breq .L104
 1049               	.LVL85:
 1050               	.LM170:
 1051 04f4 0150      		subi r16,lo8(-(-1))
 1052               	.LM171:
 1053 04f6 FE01      		movw r30,r28
 1054 04f8 E00F      		add r30,r16
 1055 04fa F11D      		adc r31,__zero_reg__
 1056 04fc 1082      		st Z,__zero_reg__
 1057               	.LM172:
 1058 04fe 88E0      		ldi r24,lo8(8)
 1059               	.LVL86:
 1060 0500 0E94 0000 		call uart_putc
 1061               	.LM173:
 1062 0504 80E2      		ldi r24,lo8(32)
 1063 0506 0E94 0000 		call uart_putc
 1064               	.LM174:
 1065 050a 88E0      		ldi r24,lo8(8)
 1066 050c 0E94 0000 		call uart_putc
 1067 0510 00C0      		rjmp .L104
 1068               	.LVL87:
 1069               	.L97:
 1070               	.LM175:
 1071 0512 0E94 0000 		call uart_putc
 1072               	.LVL88:
 1073 0516 FE01      		movw r30,r28
 1074 0518 EE0D      		add r30,r14
 1075 051a FF1D      		adc r31,r15
 1076               	.LM176:
 1077 051c 1A30      		cpi r17,lo8(10)
 1078 051e 01F4      		brne .L98
 1079               	.LM177:
 1080 0520 1082      		st Z,__zero_reg__
 1081 0522 00C0      		rjmp .L99
 1082               	.L98:
 1083               	.LM178:
 1084 0524 1083      		st Z,r17
 1085               	.LM179:
 1086 0526 0F5F      		subi r16,lo8(-(1))
 1087               	.LVL89:
 1088               	.L104:
 1089               	.LBE67:
 1090               	.LM180:
 1091 0528 E02E      		mov r14,r16
 1092 052a FF24      		clr r15
 1093 052c EC14      		cp r14,r12
 1094 052e FD04      		cpc r15,r13
 1095 0530 04F0      		brlt .L100
 1096               	.LVL90:
 1097               	.L99:
 1098               	.LM181:
 1099 0532 CE01      		movw r24,r28
 1100 0534 6B2D      		mov r22,r11
 1101 0536 0E94 0000 		call split_cmd_line_args
 1102               	.LM182:
 1103 053a 802F      		mov r24,r16
 1104               	/* epilogue start */
 1105 053c DF91      		pop r29
 1106 053e CF91      		pop r28
 1107               	.LVL91:
 1108 0540 1F91      		pop r17
 1109               	.LVL92:
 1110 0542 0F91      		pop r16
 1111 0544 FF90      		pop r15
 1112               	.LVL93:
 1113 0546 EF90      		pop r14
 1114               	.LVL94:
 1115 0548 DF90      		pop r13
 1116 054a CF90      		pop r12
 1117 054c BF90      		pop r11
 1118               	.LVL95:
 1119 054e 0895      		ret
 1120               	.LFE16:
 1122               	.global	read_buffer
 1124               	read_buffer:
 1125               	.LFB22:
 1126               	.LM183:
 1127               	.LVL96:
 1128 0550 CF92      		push r12
 1129 0552 DF92      		push r13
 1130 0554 EF92      		push r14
 1131 0556 FF92      		push r15
 1132 0558 0F93      		push r16
 1133 055a 1F93      		push r17
 1134 055c CF93      		push r28
 1135 055e DF93      		push r29
 1136               	/* prologue: function */
 1137               	/* frame size = 0 */
 1138 0560 EC01      		movw r28,r24
 1139 0562 162F      		mov r17,r22
 1140               	.LM184:
 1141 0564 60E0      		ldi r22,lo8(0)
 1142 0566 70E0      		ldi r23,hi8(0)
 1143               	.LVL97:
 1144 0568 412F      		mov r20,r17
 1145 056a 50E0      		ldi r21,lo8(0)
 1146 056c 0E94 0000 		call memset
 1147               	.LVL98:
 1148 0570 00E0      		ldi r16,lo8(0)
 1149               	.LVL99:
 1150               	.LM185:
 1151 0572 C12E      		mov r12,r17
 1152 0574 DD24      		clr r13
 1153 0576 0894      		sec
 1154 0578 C108      		sbc r12,__zero_reg__
 1155 057a D108      		sbc r13,__zero_reg__
 1156 057c 00C0      		rjmp .L115
 1157               	.LVL100:
 1158               	.L111:
 1159               	.LBB68:
 1160               	.LM186:
 1161 057e 0E94 0000 		call uart_getc
 1162 0582 182F      		mov r17,r24
 1163               	.LVL101:
 1164               	.LM187:
 1165 0584 8830      		cpi r24,lo8(8)
 1166 0586 01F0      		breq .L107
 1167               	.LVL102:
 1168 0588 8F37      		cpi r24,lo8(127)
 1169 058a 01F4      		brne .L108
 1170               	.L107:
 1171               	.LM188:
 1172 058c 0023      		tst r16
 1173 058e 01F0      		breq .L115
 1174               	.LVL103:
 1175               	.LM189:
 1176 0590 0150      		subi r16,lo8(-(-1))
 1177               	.LM190:
 1178 0592 FE01      		movw r30,r28
 1179 0594 E00F      		add r30,r16
 1180 0596 F11D      		adc r31,__zero_reg__
 1181 0598 1082      		st Z,__zero_reg__
 1182               	.LM191:
 1183 059a 88E0      		ldi r24,lo8(8)
 1184               	.LVL104:
 1185 059c 0E94 0000 		call uart_putc
 1186               	.LM192:
 1187 05a0 80E2      		ldi r24,lo8(32)
 1188 05a2 0E94 0000 		call uart_putc
 1189               	.LM193:
 1190 05a6 88E0      		ldi r24,lo8(8)
 1191 05a8 0E94 0000 		call uart_putc
 1192 05ac 00C0      		rjmp .L115
 1193               	.LVL105:
 1194               	.L108:
 1195               	.LM194:
 1196 05ae 0E94 0000 		call uart_putc
 1197               	.LVL106:
 1198 05b2 FE01      		movw r30,r28
 1199 05b4 EE0D      		add r30,r14
 1200 05b6 FF1D      		adc r31,r15
 1201               	.LM195:
 1202 05b8 1A31      		cpi r17,lo8(26)
 1203 05ba 01F4      		brne .L109
 1204               	.LM196:
 1205 05bc 1082      		st Z,__zero_reg__
 1206 05be 00C0      		rjmp .L110
 1207               	.L109:
 1208               	.LM197:
 1209 05c0 1083      		st Z,r17
 1210               	.LM198:
 1211 05c2 0F5F      		subi r16,lo8(-(1))
 1212               	.LVL107:
 1213               	.L115:
 1214               	.LBE68:
 1215               	.LM199:
 1216 05c4 E02E      		mov r14,r16
 1217 05c6 FF24      		clr r15
 1218 05c8 EC14      		cp r14,r12
 1219 05ca FD04      		cpc r15,r13
 1220 05cc 04F0      		brlt .L111
 1221               	.LVL108:
 1222               	.L110:
 1223               	.LM200:
 1224 05ce 802F      		mov r24,r16
 1225               	/* epilogue start */
 1226 05d0 DF91      		pop r29
 1227 05d2 CF91      		pop r28
 1228               	.LVL109:
 1229 05d4 1F91      		pop r17
 1230               	.LVL110:
 1231 05d6 0F91      		pop r16
 1232 05d8 FF90      		pop r15
 1233               	.LVL111:
 1234 05da EF90      		pop r14
 1235               	.LVL112:
 1236 05dc DF90      		pop r13
 1237 05de CF90      		pop r12
 1238 05e0 0895      		ret
 1239               	.LFE22:
 1241               		.data
 1242               	.LC0:
 1243 0000 2F00      		.string	"/"
 1244               		.text
 1245               	.global	init_media
 1247               	init_media:
 1248               	.LFB15:
 1249               	.LM201:
 1250 05e2 0F93      		push r16
 1251 05e4 1F93      		push r17
 1252 05e6 DF93      		push r29
 1253 05e8 CF93      		push r28
 1254 05ea CDB7      		in r28,__SP_L__
 1255 05ec DEB7      		in r29,__SP_H__
 1256 05ee AB97      		sbiw r28,43
 1257 05f0 0FB6      		in __tmp_reg__,__SREG__
 1258 05f2 F894      		cli
 1259 05f4 DEBF      		out __SP_H__,r29
 1260 05f6 0FBE      		out __SREG__,__tmp_reg__
 1261 05f8 CDBF      		out __SP_L__,r28
 1262               	/* prologue: function */
 1263               	/* frame size = 43 */
 1264               	.LM202:
 1265 05fa 0E94 0000 		call sd_raw_init
 1266 05fe 8823      		tst r24
 1267 0600 01F4      		brne .L117
 1268               	.LM203:
 1269 0602 83E0      		ldi r24,lo8(3)
 1270 0604 0E94 0000 		call blink_error
 1271               	.L117:
 1272               	.LM204:
 1273 0608 0E94 0000 		call fat_clear_handles
 1274               	.LM205:
 1275 060c 80E0      		ldi r24,lo8(gs(sd_raw_read))
 1276 060e 90E0      		ldi r25,hi8(gs(sd_raw_read))
 1277 0610 60E0      		ldi r22,lo8(gs(sd_raw_read_interval))
 1278 0612 70E0      		ldi r23,hi8(gs(sd_raw_read_interval))
 1279 0614 40E0      		ldi r20,lo8(gs(sd_raw_write))
 1280 0616 50E0      		ldi r21,hi8(gs(sd_raw_write))
 1281 0618 20E0      		ldi r18,lo8(gs(sd_raw_write_interval))
 1282 061a 30E0      		ldi r19,hi8(gs(sd_raw_write_interval))
 1283 061c 00E0      		ldi r16,lo8(0)
 1284 061e 0E94 0000 		call partition_open
 1285 0622 9093 0000 		sts (partition)+1,r25
 1286 0626 8093 0000 		sts partition,r24
 1287               	.LM206:
 1288 062a 892B      		or r24,r25
 1289 062c 01F4      		brne .L118
 1290               	.LM207:
 1291 062e 80E0      		ldi r24,lo8(gs(sd_raw_read))
 1292 0630 90E0      		ldi r25,hi8(gs(sd_raw_read))
 1293 0632 60E0      		ldi r22,lo8(gs(sd_raw_read_interval))
 1294 0634 70E0      		ldi r23,hi8(gs(sd_raw_read_interval))
 1295 0636 40E0      		ldi r20,lo8(gs(sd_raw_write))
 1296 0638 50E0      		ldi r21,hi8(gs(sd_raw_write))
 1297 063a 20E0      		ldi r18,lo8(gs(sd_raw_write_interval))
 1298 063c 30E0      		ldi r19,hi8(gs(sd_raw_write_interval))
 1299 063e 0FEF      		ldi r16,lo8(-1)
 1300 0640 0E94 0000 		call partition_open
 1301 0644 9093 0000 		sts (partition)+1,r25
 1302 0648 8093 0000 		sts partition,r24
 1303               	.L118:
 1304               	.LM208:
 1305 064c 8091 0000 		lds r24,partition
 1306 0650 9091 0000 		lds r25,(partition)+1
 1307 0654 0E94 0000 		call fat_open
 1308 0658 9093 0000 		sts (fs)+1,r25
 1309 065c 8093 0000 		sts fs,r24
 1310               	.LM209:
 1311 0660 60E0      		ldi r22,lo8(.LC0)
 1312 0662 70E0      		ldi r23,hi8(.LC0)
 1313 0664 8E01      		movw r16,r28
 1314 0666 0F5F      		subi r16,lo8(-(1))
 1315 0668 1F4F      		sbci r17,hi8(-(1))
 1316 066a A801      		movw r20,r16
 1317 066c 0E94 0000 		call fat_get_dir_entry_of_path
 1318               	.LM210:
 1319 0670 8091 0000 		lds r24,fs
 1320 0674 9091 0000 		lds r25,(fs)+1
 1321 0678 B801      		movw r22,r16
 1322 067a 0E94 0000 		call fat_open_dir
 1323 067e 9093 0000 		sts (dd)+1,r25
 1324 0682 8093 0000 		sts dd,r24
 1325               	/* epilogue start */
 1326               	.LM211:
 1327 0686 AB96      		adiw r28,43
 1328 0688 0FB6      		in __tmp_reg__,__SREG__
 1329 068a F894      		cli
 1330 068c DEBF      		out __SP_H__,r29
 1331 068e 0FBE      		out __SREG__,__tmp_reg__
 1332 0690 CDBF      		out __SP_L__,r28
 1333 0692 CF91      		pop r28
 1334 0694 DF91      		pop r29
 1335 0696 1F91      		pop r17
 1336 0698 0F91      		pop r16
 1337 069a 0895      		ret
 1338               	.LFE15:
 1341               	find_file_in_dir:
 1342               	.LFB24:
 1343               	.LM212:
 1344               	.LVL113:
 1345 069c CF92      		push r12
 1346 069e DF92      		push r13
 1347 06a0 FF92      		push r15
 1348 06a2 0F93      		push r16
 1349               	.LVL114:
 1350 06a4 1F93      		push r17
 1351 06a6 CF93      		push r28
 1352 06a8 DF93      		push r29
 1353               	/* prologue: function */
 1354               	/* frame size = 0 */
 1355 06aa 6B01      		movw r12,r22
 1356 06ac EA01      		movw r28,r20
 1357 06ae F22E      		mov r15,r18
 1358 06b0 132F      		mov r17,r19
 1359               	.LVL115:
 1360 06b2 00C0      		rjmp .L128
 1361               	.LVL116:
 1362               	.L124:
 1363               	.LM213:
 1364 06b4 8F2D      		mov r24,r15
 1365 06b6 912F      		mov r25,r17
 1366 06b8 BE01      		movw r22,r28
 1367 06ba 0E94 0000 		call strcmp
 1368               	.LM214:
 1369 06be 0097      		sbiw r24,0
 1370 06c0 01F0      		breq .L122
 1371 06c2 0130      		cpi r16,lo8(1)
 1372 06c4 01F4      		brne .L128
 1373 06c6 CE01      		movw r24,r28
 1374 06c8 6F2D      		mov r22,r15
 1375 06ca 712F      		mov r23,r17
 1376 06cc 0E94 0000 		call wildcmp
 1377 06d0 8130      		cpi r24,lo8(1)
 1378 06d2 01F4      		brne .L128
 1379               	.L122:
 1380               	.LM215:
 1381 06d4 C601      		movw r24,r12
 1382 06d6 0E94 0000 		call fat_reset_dir
 1383 06da 81E0      		ldi r24,lo8(1)
 1384 06dc 00C0      		rjmp .L123
 1385               	.LVL117:
 1386               	.L128:
 1387               	.LM216:
 1388 06de C601      		movw r24,r12
 1389               	.LVL118:
 1390 06e0 6F2D      		mov r22,r15
 1391 06e2 712F      		mov r23,r17
 1392 06e4 0E94 0000 		call fat_read_dir
 1393 06e8 8823      		tst r24
 1394 06ea 01F4      		brne .L124
 1395               	.L123:
 1396               	/* epilogue start */
 1397               	.LM217:
 1398 06ec DF91      		pop r29
 1399 06ee CF91      		pop r28
 1400               	.LVL119:
 1401 06f0 1F91      		pop r17
 1402               	.LVL120:
 1403 06f2 0F91      		pop r16
 1404               	.LVL121:
 1405 06f4 FF90      		pop r15
 1406               	.LVL122:
 1407 06f6 DF90      		pop r13
 1408 06f8 CF90      		pop r12
 1409               	.LVL123:
 1410 06fa 0895      		ret
 1411               	.LFE24:
 1414               	open_file_in_dir:
 1415               	.LFB25:
 1416               	.LM218:
 1417               	.LVL124:
 1418 06fc CF92      		push r12
 1419 06fe DF92      		push r13
 1420 0700 EF92      		push r14
 1421 0702 FF92      		push r15
 1422 0704 0F93      		push r16
 1423 0706 DF93      		push r29
 1424 0708 CF93      		push r28
 1425 070a CDB7      		in r28,__SP_L__
 1426 070c DEB7      		in r29,__SP_H__
 1427 070e AB97      		sbiw r28,43
 1428 0710 0FB6      		in __tmp_reg__,__SREG__
 1429 0712 F894      		cli
 1430 0714 DEBF      		out __SP_H__,r29
 1431 0716 0FBE      		out __SREG__,__tmp_reg__
 1432 0718 CDBF      		out __SP_L__,r28
 1433               	/* prologue: function */
 1434               	/* frame size = 43 */
 1435 071a 7C01      		movw r14,r24
 1436               	.LM219:
 1437 071c 6E01      		movw r12,r28
 1438 071e 0894      		sec
 1439 0720 C11C      		adc r12,__zero_reg__
 1440 0722 D11C      		adc r13,__zero_reg__
 1441 0724 9601      		movw r18,r12
 1442 0726 00E0      		ldi r16,lo8(0)
 1443 0728 0E94 0000 		call find_file_in_dir
 1444               	.LVL125:
 1445 072c 8823      		tst r24
 1446 072e 01F4      		brne .L130
 1447 0730 20E0      		ldi r18,lo8(0)
 1448 0732 30E0      		ldi r19,hi8(0)
 1449 0734 00C0      		rjmp .L131
 1450               	.L130:
 1451               	.LM220:
 1452 0736 C701      		movw r24,r14
 1453 0738 B601      		movw r22,r12
 1454 073a 0E94 0000 		call fat_open_file
 1455 073e 9C01      		movw r18,r24
 1456               	.L131:
 1457               	.LM221:
 1458 0740 C901      		movw r24,r18
 1459               	/* epilogue start */
 1460 0742 AB96      		adiw r28,43
 1461 0744 0FB6      		in __tmp_reg__,__SREG__
 1462 0746 F894      		cli
 1463 0748 DEBF      		out __SP_H__,r29
 1464 074a 0FBE      		out __SREG__,__tmp_reg__
 1465 074c CDBF      		out __SP_L__,r28
 1466 074e CF91      		pop r28
 1467 0750 DF91      		pop r29
 1468 0752 0F91      		pop r16
 1469 0754 FF90      		pop r15
 1470 0756 EF90      		pop r14
 1471               	.LVL126:
 1472 0758 DF90      		pop r13
 1473 075a CF90      		pop r12
 1474 075c 0895      		ret
 1475               	.LFE25:
 1477               	.global	append_file
 1479               	append_file:
 1480               	.LFB14:
 1481               	.LM222:
 1482               	.LVL127:
 1483 075e EF92      		push r14
 1484 0760 FF92      		push r15
 1485 0762 0F93      		push r16
 1486 0764 1F93      		push r17
 1487 0766 DF93      		push r29
 1488 0768 CF93      		push r28
 1489 076a 00D0      		rcall .
 1490 076c 00D0      		rcall .
 1491 076e CDB7      		in r28,__SP_L__
 1492 0770 DEB7      		in r29,__SP_H__
 1493               	/* prologue: function */
 1494               	/* frame size = 4 */
 1495 0772 8C01      		movw r16,r24
 1496               	.LM223:
 1497 0774 6091 0000 		lds r22,dd
 1498 0778 7091 0000 		lds r23,(dd)+1
 1499 077c 8091 0000 		lds r24,fs
 1500 0780 9091 0000 		lds r25,(fs)+1
 1501               	.LVL128:
 1502 0784 A801      		movw r20,r16
 1503 0786 0E94 0000 		call open_file_in_dir
 1504 078a 7C01      		movw r14,r24
 1505               	.LVL129:
 1506               	.LM224:
 1507 078c 0097      		sbiw r24,0
 1508 078e 01F4      		brne .L134
 1509               	.LVL130:
 1510               	.LM225:
 1511 0790 80E0      		ldi r24,lo8(__c.2466)
 1512 0792 90E0      		ldi r25,hi8(__c.2466)
 1513               	.LVL131:
 1514 0794 0E94 0000 		call uart_puts_p
 1515               	.LM226:
 1516 0798 C801      		movw r24,r16
 1517 079a 0E94 0000 		call uart_puts
 1518               	.LM227:
 1519 079e 8AE0      		ldi r24,lo8(10)
 1520 07a0 0E94 0000 		call uart_putc
 1521 07a4 00C0      		rjmp .L162
 1522               	.LVL132:
 1523               	.L134:
 1524               	.LM228:
 1525 07a6 1982      		std Y+1,__zero_reg__
 1526 07a8 1A82      		std Y+2,__zero_reg__
 1527 07aa 1B82      		std Y+3,__zero_reg__
 1528 07ac 1C82      		std Y+4,__zero_reg__
 1529               	.LVL133:
 1530               	.LM229:
 1531 07ae BE01      		movw r22,r28
 1532 07b0 6F5F      		subi r22,lo8(-(1))
 1533 07b2 7F4F      		sbci r23,hi8(-(1))
 1534 07b4 42E0      		ldi r20,lo8(2)
 1535 07b6 0E94 0000 		call fat_seek_file
 1536               	.LVL134:
 1537 07ba 8823      		tst r24
 1538 07bc 01F4      		brne .L136
 1539               	.LM230:
 1540 07be 80E0      		ldi r24,lo8(__c.2469)
 1541 07c0 90E0      		ldi r25,hi8(__c.2469)
 1542 07c2 0E94 0000 		call uart_puts_p
 1543               	.LM231:
 1544 07c6 C801      		movw r24,r16
 1545 07c8 0E94 0000 		call uart_puts
 1546               	.LM232:
 1547 07cc 8AE0      		ldi r24,lo8(10)
 1548 07ce 0E94 0000 		call uart_putc
 1549               	.LM233:
 1550 07d2 C701      		movw r24,r14
 1551 07d4 0E94 0000 		call fat_close_file
 1552               	.L162:
 1553 07d8 80E0      		ldi r24,lo8(0)
 1554 07da 00C0      		rjmp .L135
 1555               	.L136:
 1556               	.LM234:
 1557 07dc 8CE3      		ldi r24,lo8(60)
 1558 07de 0E94 0000 		call uart_putc
 1559               	.LM235:
 1560 07e2 5D9A      		sbi 43-32,5
 1561               	.LM236:
 1562 07e4 1092 0000 		sts (read_spot)+1,__zero_reg__
 1563 07e8 1092 0000 		sts read_spot,__zero_reg__
 1564               	.LM237:
 1565 07ec 1092 0000 		sts (checked_spot)+1,__zero_reg__
 1566 07f0 1092 0000 		sts checked_spot,__zero_reg__
 1567 07f4 80E0      		ldi r24,lo8(0)
 1568 07f6 90E0      		ldi r25,hi8(0)
 1569               	.LVL135:
 1570               	.L137:
 1571               	.LBB69:
 1572               	.LM238:
 1573 07f8 FC01      		movw r30,r24
 1574 07fa E050      		subi r30,lo8(-(input_buffer))
 1575 07fc F040      		sbci r31,hi8(-(input_buffer))
 1576 07fe 1082      		st Z,__zero_reg__
 1577               	.LM239:
 1578 0800 0196      		adiw r24,1
 1579 0802 22E0      		ldi r18,hi8(700)
 1580 0804 8C3B      		cpi r24,lo8(700)
 1581 0806 9207      		cpc r25,r18
 1582 0808 01F4      		brne .L137
 1583               	.LBE69:
 1584               	.LM240:
 1585 080a 8091 C100 		lds r24,193
 1586               	.LVL136:
 1587 080e 8068      		ori r24,lo8(-128)
 1588 0810 8093 C100 		sts 193,r24
 1589               	.LM241:
 1590               	/* #APP */
 1591               	 ;  1635 "main.c" 1
 1592 0814 7894      		sei
 1593               	 ;  0 "" 2
 1594               	/* #NOAPP */
 1595 0816 00C0      		rjmp .L153
 1596               	.LVL137:
 1597               	.L150:
 1598               	.LBB70:
 1599               	.LM242:
 1600 0818 0F5F      		subi r16,lo8(-(1))
 1601 081a 1F4F      		sbci r17,hi8(-(1))
 1602 081c 83E1      		ldi r24,hi8(5001)
 1603 081e 0938      		cpi r16,lo8(5001)
 1604 0820 1807      		cpc r17,r24
 1605 0822 00F4      		brsh .+2
 1606 0824 00C0      		rjmp .L139
 1607               	.LM243:
 1608 0826 8091 0000 		lds r24,checked_spot
 1609 082a 9091 0000 		lds r25,(checked_spot)+1
 1610 082e 892B      		or r24,r25
 1611 0830 01F4      		brne .+2
 1612 0832 00C0      		rjmp .L140
 1613 0834 8091 0000 		lds r24,checked_spot
 1614 0838 9091 0000 		lds r25,(checked_spot)+1
 1615 083c 8E55      		subi r24,lo8(350)
 1616 083e 9140      		sbci r25,hi8(350)
 1617 0840 01F4      		brne .+2
 1618 0842 00C0      		rjmp .L140
 1619               	.LBB71:
 1620               	.LM244:
 1621 0844 8091 0000 		lds r24,checked_spot
 1622 0848 9091 0000 		lds r25,(checked_spot)+1
 1623 084c 8E55      		subi r24,lo8(350)
 1624 084e 9140      		sbci r25,hi8(350)
 1625 0850 00F4      		brsh .L141
 1626               	.LM245:
 1627 0852 4091 0000 		lds r20,checked_spot
 1628 0856 5091 0000 		lds r21,(checked_spot)+1
 1629 085a C701      		movw r24,r14
 1630 085c 60E0      		ldi r22,lo8(input_buffer)
 1631 085e 70E0      		ldi r23,hi8(input_buffer)
 1632 0860 0E94 0000 		call fat_write_file
 1633 0864 2091 0000 		lds r18,checked_spot
 1634 0868 3091 0000 		lds r19,(checked_spot)+1
 1635 086c 8217      		cp r24,r18
 1636 086e 9307      		cpc r25,r19
 1637 0870 01F0      		breq .L142
 1638               	.LM246:
 1639 0872 80E0      		ldi r24,lo8(__c.2477)
 1640 0874 90E0      		ldi r25,hi8(__c.2477)
 1641 0876 00C0      		rjmp .L159
 1642               	.L141:
 1643               	.LM247:
 1644 0878 4091 0000 		lds r20,checked_spot
 1645 087c 5091 0000 		lds r21,(checked_spot)+1
 1646 0880 4E55      		subi r20,lo8(-(-350))
 1647 0882 5140      		sbci r21,hi8(-(-350))
 1648 0884 C701      		movw r24,r14
 1649 0886 60E0      		ldi r22,lo8(input_buffer+350)
 1650 0888 70E0      		ldi r23,hi8(input_buffer+350)
 1651 088a 0E94 0000 		call fat_write_file
 1652 088e 2091 0000 		lds r18,checked_spot
 1653 0892 3091 0000 		lds r19,(checked_spot)+1
 1654 0896 2E55      		subi r18,lo8(-(-350))
 1655 0898 3140      		sbci r19,hi8(-(-350))
 1656 089a 8217      		cp r24,r18
 1657 089c 9307      		cpc r25,r19
 1658 089e 01F0      		breq .L142
 1659               	.LM248:
 1660 08a0 80E0      		ldi r24,lo8(__c.2479)
 1661 08a2 90E0      		ldi r25,hi8(__c.2479)
 1662               	.L159:
 1663 08a4 0E94 0000 		call uart_puts_p
 1664               	.L142:
 1665               	.LM249:
 1666 08a8 8091 0000 		lds r24,checked_spot
 1667 08ac 9091 0000 		lds r25,(checked_spot)+1
 1668 08b0 8F55      		subi r24,lo8(351)
 1669 08b2 9140      		sbci r25,hi8(351)
 1670 08b4 00F4      		brsh .L143
 1671 08b6 60E0      		ldi r22,lo8(0)
 1672 08b8 70E0      		ldi r23,hi8(0)
 1673               	.LVL138:
 1674 08ba 00C0      		rjmp .L144
 1675               	.LVL139:
 1676               	.L143:
 1677 08bc 6EE5      		ldi r22,lo8(350)
 1678 08be 71E0      		ldi r23,hi8(350)
 1679               	.LVL140:
 1680               	.L144:
 1681               	.LM250:
 1682               	/* #APP */
 1683               	 ;  1673 "main.c" 1
 1684 08c0 F894      		cli
 1685               	 ;  0 "" 2
 1686               	/* #NOAPP */
 1687 08c2 AB01      		movw r20,r22
 1688 08c4 00C0      		rjmp .L145
 1689               	.LVL141:
 1690               	.L147:
 1691               	.LM251:
 1692 08c6 8091 0000 		lds r24,checked_spot
 1693 08ca 9091 0000 		lds r25,(checked_spot)+1
 1694 08ce FC01      		movw r30,r24
 1695 08d0 E050      		subi r30,lo8(-(input_buffer))
 1696 08d2 F040      		sbci r31,hi8(-(input_buffer))
 1697 08d4 2081      		ld r18,Z
 1698 08d6 FA01      		movw r30,r20
 1699 08d8 E050      		subi r30,lo8(-(input_buffer))
 1700 08da F040      		sbci r31,hi8(-(input_buffer))
 1701 08dc 2083      		st Z,r18
 1702 08de 0196      		adiw r24,1
 1703 08e0 9093 0000 		sts (checked_spot)+1,r25
 1704 08e4 8093 0000 		sts checked_spot,r24
 1705               	.LM252:
 1706 08e8 8091 0000 		lds r24,checked_spot
 1707 08ec 9091 0000 		lds r25,(checked_spot)+1
 1708 08f0 8C5B      		subi r24,lo8(700)
 1709 08f2 9240      		sbci r25,hi8(700)
 1710 08f4 00F0      		brlo .L146
 1711               	.LM253:
 1712 08f6 1092 0000 		sts (checked_spot)+1,__zero_reg__
 1713 08fa 1092 0000 		sts checked_spot,__zero_reg__
 1714               	.L146:
 1715               	.LM254:
 1716 08fe 4F5F      		subi r20,lo8(-(1))
 1717 0900 5F4F      		sbci r21,hi8(-(1))
 1718               	.LVL142:
 1719               	.L145:
 1720               	.LM255:
 1721 0902 2091 0000 		lds r18,checked_spot
 1722 0906 3091 0000 		lds r19,(checked_spot)+1
 1723 090a 8091 0000 		lds r24,read_spot
 1724 090e 9091 0000 		lds r25,(read_spot)+1
 1725 0912 2817      		cp r18,r24
 1726 0914 3907      		cpc r19,r25
 1727 0916 01F4      		brne .L147
 1728               	.LM256:
 1729 0918 5093 0000 		sts (read_spot)+1,r21
 1730 091c 4093 0000 		sts read_spot,r20
 1731               	.LM257:
 1732 0920 7093 0000 		sts (checked_spot)+1,r23
 1733 0924 6093 0000 		sts checked_spot,r22
 1734               	.LM258:
 1735               	/* #APP */
 1736               	 ;  1685 "main.c" 1
 1737 0928 7894      		sei
 1738               	 ;  0 "" 2
 1739               	.LVL143:
 1740               	/* #NOAPP */
 1741               	.L140:
 1742               	.LBE71:
 1743               	.LM259:
 1744 092a 0E94 0000 		call sd_raw_sync
 1745               	.LVL144:
 1746 092e 00C0      		rjmp .L148
 1747               	.L149:
 1748               	.LM260:
 1749 0930 5D98      		cbi 43-32,5
 1750               	.LM261:
 1751 0932 83B7      		in r24,83-32
 1752 0934 8160      		ori r24,lo8(1)
 1753 0936 83BF      		out 83-32,r24
 1754               	/* #APP */
 1755               	 ;  1695 "main.c" 1
 1756 0938 8895      		sleep
 1757               		
 1758               	 ;  0 "" 2
 1759               	/* #NOAPP */
 1760 093a 83B7      		in r24,83-32
 1761 093c 8E7F      		andi r24,lo8(-2)
 1762 093e 83BF      		out 83-32,r24
 1763               	.L148:
 1764               	.LM262:
 1765 0940 2091 0000 		lds r18,checked_spot
 1766 0944 3091 0000 		lds r19,(checked_spot)+1
 1767 0948 8091 0000 		lds r24,read_spot
 1768 094c 9091 0000 		lds r25,(read_spot)+1
 1769 0950 2817      		cp r18,r24
 1770 0952 3907      		cpc r19,r25
 1771 0954 01F0      		breq .L149
 1772 0956 00E0      		ldi r16,lo8(0)
 1773 0958 10E0      		ldi r17,hi8(0)
 1774               	.L139:
 1775               	.LM263:
 1776 095a 81E0      		ldi r24,lo8(1)
 1777 095c 90E0      		ldi r25,hi8(1)
 1778 095e 0E94 0000 		call delay_ms
 1779 0962 00C0      		rjmp .L158
 1780               	.LVL145:
 1781               	.L153:
 1782 0964 00E0      		ldi r16,lo8(0)
 1783 0966 10E0      		ldi r17,hi8(0)
 1784               	.LVL146:
 1785               	.L158:
 1786               	.LM264:
 1787 0968 2091 0000 		lds r18,checked_spot
 1788 096c 3091 0000 		lds r19,(checked_spot)+1
 1789 0970 8091 0000 		lds r24,read_spot
 1790 0974 9091 0000 		lds r25,(read_spot)+1
 1791 0978 2817      		cp r18,r24
 1792 097a 3907      		cpc r19,r25
 1793 097c 01F4      		brne .+2
 1794 097e 00C0      		rjmp .L150
 1795               	.LM265:
 1796 0980 E091 0000 		lds r30,checked_spot
 1797 0984 F091 0000 		lds r31,(checked_spot)+1
 1798 0988 E050      		subi r30,lo8(-(input_buffer))
 1799 098a F040      		sbci r31,hi8(-(input_buffer))
 1800 098c E081      		ld r30,Z
 1801               	.LM266:
 1802 098e 8091 0000 		lds r24,checked_spot
 1803 0992 9091 0000 		lds r25,(checked_spot)+1
 1804 0996 0196      		adiw r24,1
 1805 0998 9093 0000 		sts (checked_spot)+1,r25
 1806 099c 8093 0000 		sts checked_spot,r24
 1807               	.LM267:
 1808 09a0 8091 0000 		lds r24,checked_spot
 1809 09a4 9091 0000 		lds r25,(checked_spot)+1
 1810 09a8 8E55      		subi r24,lo8(350)
 1811 09aa 9140      		sbci r25,hi8(350)
 1812 09ac 01F4      		brne .L151
 1813               	.LM268:
 1814 09ae C701      		movw r24,r14
 1815 09b0 60E0      		ldi r22,lo8(input_buffer)
 1816 09b2 70E0      		ldi r23,hi8(input_buffer)
 1817 09b4 4EE5      		ldi r20,lo8(350)
 1818 09b6 51E0      		ldi r21,hi8(350)
 1819 09b8 0E94 0000 		call fat_write_file
 1820 09bc 8E55      		subi r24,lo8(350)
 1821 09be 9140      		sbci r25,hi8(350)
 1822 09c0 01F0      		breq .L151
 1823               	.LM269:
 1824 09c2 80E0      		ldi r24,lo8(__c.2492)
 1825 09c4 90E0      		ldi r25,hi8(__c.2492)
 1826 09c6 00C0      		rjmp .L160
 1827               	.L151:
 1828               	.LM270:
 1829 09c8 8091 0000 		lds r24,checked_spot
 1830 09cc 9091 0000 		lds r25,(checked_spot)+1
 1831 09d0 8C5B      		subi r24,lo8(700)
 1832 09d2 9240      		sbci r25,hi8(700)
 1833 09d4 01F4      		brne .L153
 1834               	.LM271:
 1835 09d6 1092 0000 		sts (checked_spot)+1,__zero_reg__
 1836 09da 1092 0000 		sts checked_spot,__zero_reg__
 1837               	.LM272:
 1838 09de C701      		movw r24,r14
 1839 09e0 60E0      		ldi r22,lo8(input_buffer+350)
 1840 09e2 70E0      		ldi r23,hi8(input_buffer+350)
 1841 09e4 4EE5      		ldi r20,lo8(350)
 1842 09e6 51E0      		ldi r21,hi8(350)
 1843 09e8 0E94 0000 		call fat_write_file
 1844 09ec 8E55      		subi r24,lo8(350)
 1845 09ee 9140      		sbci r25,hi8(350)
 1846 09f0 01F4      		brne .+2
 1847 09f2 00C0      		rjmp .L153
 1848               	.LM273:
 1849 09f4 80E0      		ldi r24,lo8(__c.2495)
 1850 09f6 90E0      		ldi r25,hi8(__c.2495)
 1851               	.L160:
 1852 09f8 0E94 0000 		call uart_puts_p
 1853               	.LBE70:
 1854               	.LM274:
 1855 09fc 8091 0000 		lds r24,checked_spot
 1856 0a00 9091 0000 		lds r25,(checked_spot)+1
 1857 0a04 892B      		or r24,r25
 1858 0a06 01F0      		breq .L154
 1859 0a08 8091 0000 		lds r24,checked_spot
 1860 0a0c 9091 0000 		lds r25,(checked_spot)+1
 1861 0a10 8E55      		subi r24,lo8(350)
 1862 0a12 9140      		sbci r25,hi8(350)
 1863 0a14 01F0      		breq .L154
 1864               	.LM275:
 1865 0a16 8091 0000 		lds r24,checked_spot
 1866 0a1a 9091 0000 		lds r25,(checked_spot)+1
 1867 0a1e 8E55      		subi r24,lo8(350)
 1868 0a20 9140      		sbci r25,hi8(350)
 1869 0a22 00F4      		brsh .L155
 1870               	.LM276:
 1871 0a24 4091 0000 		lds r20,checked_spot
 1872 0a28 5091 0000 		lds r21,(checked_spot)+1
 1873 0a2c C701      		movw r24,r14
 1874 0a2e 60E0      		ldi r22,lo8(input_buffer)
 1875 0a30 70E0      		ldi r23,hi8(input_buffer)
 1876 0a32 0E94 0000 		call fat_write_file
 1877 0a36 2091 0000 		lds r18,checked_spot
 1878 0a3a 3091 0000 		lds r19,(checked_spot)+1
 1879 0a3e 8217      		cp r24,r18
 1880 0a40 9307      		cpc r25,r19
 1881 0a42 01F0      		breq .L154
 1882               	.LM277:
 1883 0a44 80E0      		ldi r24,lo8(__c.2498)
 1884 0a46 90E0      		ldi r25,hi8(__c.2498)
 1885 0a48 00C0      		rjmp .L161
 1886               	.L155:
 1887               	.LM278:
 1888 0a4a 4091 0000 		lds r20,checked_spot
 1889 0a4e 5091 0000 		lds r21,(checked_spot)+1
 1890 0a52 4E55      		subi r20,lo8(-(-350))
 1891 0a54 5140      		sbci r21,hi8(-(-350))
 1892 0a56 C701      		movw r24,r14
 1893 0a58 60E0      		ldi r22,lo8(input_buffer+350)
 1894 0a5a 70E0      		ldi r23,hi8(input_buffer+350)
 1895 0a5c 0E94 0000 		call fat_write_file
 1896 0a60 2091 0000 		lds r18,checked_spot
 1897 0a64 3091 0000 		lds r19,(checked_spot)+1
 1898 0a68 2E55      		subi r18,lo8(-(-350))
 1899 0a6a 3140      		sbci r19,hi8(-(-350))
 1900 0a6c 8217      		cp r24,r18
 1901 0a6e 9307      		cpc r25,r19
 1902 0a70 01F0      		breq .L154
 1903               	.LM279:
 1904 0a72 80E0      		ldi r24,lo8(__c.2500)
 1905 0a74 90E0      		ldi r25,hi8(__c.2500)
 1906               	.L161:
 1907 0a76 0E94 0000 		call uart_puts_p
 1908               	.L154:
 1909               	.LM280:
 1910 0a7a C701      		movw r24,r14
 1911 0a7c 0E94 0000 		call fat_close_file
 1912               	.LM281:
 1913 0a80 5D98      		cbi 43-32,5
 1914               	.LM282:
 1915 0a82 80E0      		ldi r24,lo8(__c.2502)
 1916 0a84 90E0      		ldi r25,hi8(__c.2502)
 1917 0a86 0E94 0000 		call uart_puts_p
 1918 0a8a 81E0      		ldi r24,lo8(1)
 1919               	.LVL147:
 1920               	.L135:
 1921               	/* epilogue start */
 1922               	.LM283:
 1923 0a8c 0F90      		pop __tmp_reg__
 1924 0a8e 0F90      		pop __tmp_reg__
 1925 0a90 0F90      		pop __tmp_reg__
 1926 0a92 0F90      		pop __tmp_reg__
 1927 0a94 CF91      		pop r28
 1928 0a96 DF91      		pop r29
 1929 0a98 1F91      		pop r17
 1930 0a9a 0F91      		pop r16
 1931               	.LVL148:
 1932 0a9c FF90      		pop r15
 1933 0a9e EF90      		pop r14
 1934               	.LVL149:
 1935 0aa0 0895      		ret
 1936               	.LFE14:
 1938               		.data
 1939               	.LC1:
 1940 0002 4C4F 4725 		.string	"LOG%05u.txt"
 1940      3035 752E 
 1940      7478 7400 
 1941               		.text
 1942               	.global	newlog
 1944               	newlog:
 1945               	.LFB12:
 1946               	.LM284:
 1947 0aa2 9F92      		push r9
 1948 0aa4 AF92      		push r10
 1949 0aa6 BF92      		push r11
 1950 0aa8 CF92      		push r12
 1951 0aaa DF92      		push r13
 1952 0aac EF92      		push r14
 1953 0aae FF92      		push r15
 1954 0ab0 0F93      		push r16
 1955 0ab2 1F93      		push r17
 1956 0ab4 DF93      		push r29
 1957 0ab6 CF93      		push r28
 1958 0ab8 CDB7      		in r28,__SP_L__
 1959 0aba DEB7      		in r29,__SP_H__
 1960 0abc AB97      		sbiw r28,43
 1961 0abe 0FB6      		in __tmp_reg__,__SREG__
 1962 0ac0 F894      		cli
 1963 0ac2 DEBF      		out __SP_H__,r29
 1964 0ac4 0FBE      		out __SREG__,__tmp_reg__
 1965 0ac6 CDBF      		out __SP_L__,r28
 1966               	/* prologue: function */
 1967               	/* frame size = 43 */
 1968               	.LM285:
 1969 0ac8 83E0      		ldi r24,lo8(3)
 1970 0aca 90E0      		ldi r25,hi8(3)
 1971 0acc 0E94 0000 		call EEPROM_read
 1972 0ad0 182F      		mov r17,r24
 1973               	.LVL150:
 1974               	.LM286:
 1975 0ad2 84E0      		ldi r24,lo8(4)
 1976 0ad4 90E0      		ldi r25,hi8(4)
 1977 0ad6 0E94 0000 		call EEPROM_read
 1978 0ada 282F      		mov r18,r24
 1979               	.LVL151:
 1980               	.LM287:
 1981 0adc 1F3F      		cpi r17,lo8(-1)
 1982 0ade 01F4      		brne .L164
 1983 0ae0 8F3F      		cpi r24,lo8(-1)
 1984 0ae2 01F4      		brne .L164
 1985               	.LVL152:
 1986               	.LM288:
 1987 0ae4 83E0      		ldi r24,lo8(3)
 1988 0ae6 90E0      		ldi r25,hi8(3)
 1989               	.LVL153:
 1990 0ae8 60E0      		ldi r22,lo8(0)
 1991 0aea 0E94 0000 		call EEPROM_write
 1992               	.LVL154:
 1993               	.LM289:
 1994 0aee 84E0      		ldi r24,lo8(4)
 1995 0af0 90E0      		ldi r25,hi8(4)
 1996 0af2 60E0      		ldi r22,lo8(0)
 1997 0af4 0E94 0000 		call EEPROM_write
 1998 0af8 CC24      		clr r12
 1999 0afa DD24      		clr r13
 2000               	.LVL155:
 2001 0afc 00C0      		rjmp .L165
 2002               	.LVL156:
 2003               	.L164:
 2004               	.LM290:
 2005 0afe 922F      		mov r25,r18
 2006               	.LVL157:
 2007 0b00 80E0      		ldi r24,lo8(0)
 2008               	.LVL158:
 2009               	.LM291:
 2010 0b02 C12E      		mov r12,r17
 2011               	.LVL159:
 2012 0b04 DD24      		clr r13
 2013               	.LVL160:
 2014 0b06 C82A      		or r12,r24
 2015 0b08 D92A      		or r13,r25
 2016               	.LVL161:
 2017               	.LM292:
 2018 0b0a 8EEF      		ldi r24,lo8(-2)
 2019 0b0c C816      		cp r12,r24
 2020 0b0e 8FEF      		ldi r24,hi8(-2)
 2021 0b10 D806      		cpc r13,r24
 2022 0b12 01F4      		brne .L165
 2023               	.LM293:
 2024 0b14 80E0      		ldi r24,lo8(__c.2240)
 2025 0b16 90E0      		ldi r25,hi8(__c.2240)
 2026 0b18 00C0      		rjmp .L172
 2027               	.L165:
 2028               	.LM294:
 2029 0b1a 00D0      		rcall .
 2030 0b1c 00D0      		rcall .
 2031 0b1e 00D0      		rcall .
 2032 0b20 EDB7      		in r30,__SP_L__
 2033 0b22 FEB7      		in r31,__SP_H__
 2034 0b24 3196      		adiw r30,1
 2035 0b26 00E0      		ldi r16,lo8(general_buffer)
 2036 0b28 10E0      		ldi r17,hi8(general_buffer)
 2037 0b2a ADB7      		in r26,__SP_L__
 2038 0b2c BEB7      		in r27,__SP_H__
 2039 0b2e 1296      		adiw r26,1+1
 2040 0b30 1C93      		st X,r17
 2041 0b32 0E93      		st -X,r16
 2042 0b34 1197      		sbiw r26,1
 2043 0b36 40E0      		ldi r20,lo8(.LC1)
 2044 0b38 E42E      		mov r14,r20
 2045 0b3a 40E0      		ldi r20,hi8(.LC1)
 2046 0b3c F42E      		mov r15,r20
 2047 0b3e F382      		std Z+3,r15
 2048 0b40 E282      		std Z+2,r14
 2049 0b42 D582      		std Z+5,r13
 2050 0b44 C482      		std Z+4,r12
 2051 0b46 0E94 0000 		call sprintf
 2052               	.LVL162:
 2053 0b4a 8DB7      		in r24,__SP_L__
 2054 0b4c 9EB7      		in r25,__SP_H__
 2055 0b4e 0696      		adiw r24,6
 2056 0b50 0FB6      		in __tmp_reg__,__SREG__
 2057 0b52 F894      		cli
 2058 0b54 9EBF      		out __SP_H__,r25
 2059 0b56 0FBE      		out __SREG__,__tmp_reg__
 2060 0b58 8DBF      		out __SP_L__,r24
 2061               	.LM295:
 2062 0b5a 902E      		mov r9,r16
 2063 0b5c 012F      		mov r16,r17
 2064               	.LVL163:
 2065 0b5e 5E01      		movw r10,r28
 2066 0b60 0894      		sec
 2067 0b62 A11C      		adc r10,__zero_reg__
 2068 0b64 B11C      		adc r11,__zero_reg__
 2069               	.LM296:
 2070 0b66 1E2D      		mov r17,r14
 2071 0b68 EF2C      		mov r14,r15
 2072 0b6a 00C0      		rjmp .L167
 2073               	.L168:
 2074 0b6c 00D0      		rcall .
 2075 0b6e 00D0      		rcall .
 2076 0b70 00D0      		rcall .
 2077 0b72 EDB7      		in r30,__SP_L__
 2078 0b74 FEB7      		in r31,__SP_H__
 2079 0b76 3196      		adiw r30,1
 2080 0b78 ADB7      		in r26,__SP_L__
 2081 0b7a BEB7      		in r27,__SP_H__
 2082 0b7c 1196      		adiw r26,1
 2083 0b7e 9C92      		st X,r9
 2084 0b80 1197      		sbiw r26,1
 2085 0b82 1296      		adiw r26,2
 2086 0b84 0C93      		st X,r16
 2087 0b86 1283      		std Z+2,r17
 2088 0b88 E382      		std Z+3,r14
 2089 0b8a D582      		std Z+5,r13
 2090 0b8c C482      		std Z+4,r12
 2091 0b8e 0E94 0000 		call sprintf
 2092               	.LM297:
 2093 0b92 8DB7      		in r24,__SP_L__
 2094 0b94 9EB7      		in r25,__SP_H__
 2095 0b96 0696      		adiw r24,6
 2096 0b98 0FB6      		in __tmp_reg__,__SREG__
 2097 0b9a F894      		cli
 2098 0b9c 9EBF      		out __SP_H__,r25
 2099 0b9e 0FBE      		out __SREG__,__tmp_reg__
 2100 0ba0 8DBF      		out __SP_L__,r24
 2101 0ba2 9EEF      		ldi r25,lo8(-2)
 2102 0ba4 C916      		cp r12,r25
 2103 0ba6 9FEF      		ldi r25,hi8(-2)
 2104 0ba8 D906      		cpc r13,r25
 2105 0baa 00F0      		brlo .L167
 2106               	.LM298:
 2107 0bac 80E0      		ldi r24,lo8(__c.2244)
 2108 0bae 90E0      		ldi r25,hi8(__c.2244)
 2109               	.LVL164:
 2110               	.L172:
 2111 0bb0 0E94 0000 		call uart_puts_p
 2112               	.LVL165:
 2113 0bb4 00C0      		rjmp .L170
 2114               	.LVL166:
 2115               	.L167:
 2116               	.LM299:
 2117 0bb6 8091 0000 		lds r24,dd
 2118 0bba 9091 0000 		lds r25,(dd)+1
 2119 0bbe 60E0      		ldi r22,lo8(general_buffer)
 2120 0bc0 70E0      		ldi r23,hi8(general_buffer)
 2121 0bc2 A501      		movw r20,r10
 2122 0bc4 0E94 0000 		call fat_create_file
 2123 0bc8 0894      		sec
 2124 0bca C11C      		adc r12,__zero_reg__
 2125 0bcc D11C      		adc r13,__zero_reg__
 2126 0bce 8823      		tst r24
 2127 0bd0 01F0      		breq .L168
 2128               	.LM300:
 2129 0bd2 83E0      		ldi r24,lo8(3)
 2130 0bd4 90E0      		ldi r25,hi8(3)
 2131 0bd6 6C2D      		mov r22,r12
 2132 0bd8 0E94 0000 		call EEPROM_write
 2133               	.LM301:
 2134 0bdc 84E0      		ldi r24,lo8(4)
 2135 0bde 90E0      		ldi r25,hi8(4)
 2136 0be0 0E94 0000 		call EEPROM_read
 2137 0be4 8D15      		cp r24,r13
 2138               	.LVL167:
 2139 0be6 01F0      		breq .L169
 2140               	.LM302:
 2141 0be8 84E0      		ldi r24,lo8(4)
 2142 0bea 90E0      		ldi r25,hi8(4)
 2143 0bec 6D2D      		mov r22,r13
 2144               	.LVL168:
 2145 0bee 0E94 0000 		call EEPROM_write
 2146               	.L169:
 2147               	.LM303:
 2148 0bf2 80E0      		ldi r24,lo8(general_buffer)
 2149 0bf4 90E0      		ldi r25,hi8(general_buffer)
 2150 0bf6 0E94 0000 		call append_file
 2151               	.LVL169:
 2152               	.L170:
 2153               	/* epilogue start */
 2154               	.LM304:
 2155 0bfa AB96      		adiw r28,43
 2156 0bfc 0FB6      		in __tmp_reg__,__SREG__
 2157 0bfe F894      		cli
 2158 0c00 DEBF      		out __SP_H__,r29
 2159 0c02 0FBE      		out __SREG__,__tmp_reg__
 2160 0c04 CDBF      		out __SP_L__,r28
 2161 0c06 CF91      		pop r28
 2162 0c08 DF91      		pop r29
 2163 0c0a 1F91      		pop r17
 2164               	.LVL170:
 2165 0c0c 0F91      		pop r16
 2166 0c0e FF90      		pop r15
 2167 0c10 EF90      		pop r14
 2168 0c12 DF90      		pop r13
 2169               	.LVL171:
 2170 0c14 CF90      		pop r12
 2171               	.LVL172:
 2172 0c16 BF90      		pop r11
 2173 0c18 AF90      		pop r10
 2174 0c1a 9F90      		pop r9
 2175 0c1c 0895      		ret
 2176               	.LFE12:
 2178               		.data
 2179               	.LC2:
 2180 000e 5345 514C 		.string	"SEQLOG.txt"
 2180      4F47 2E74 
 2180      7874 00
 2181               		.text
 2182               	.global	seqlog
 2184               	seqlog:
 2185               	.LFB11:
 2186               	.LM305:
 2187 0c1e EF92      		push r14
 2188 0c20 FF92      		push r15
 2189 0c22 0F93      		push r16
 2190 0c24 1F93      		push r17
 2191 0c26 DF93      		push r29
 2192 0c28 CF93      		push r28
 2193 0c2a CDB7      		in r28,__SP_L__
 2194 0c2c DEB7      		in r29,__SP_H__
 2195 0c2e E897      		sbiw r28,56
 2196 0c30 0FB6      		in __tmp_reg__,__SREG__
 2197 0c32 F894      		cli
 2198 0c34 DEBF      		out __SP_H__,r29
 2199 0c36 0FBE      		out __SREG__,__tmp_reg__
 2200 0c38 CDBF      		out __SP_L__,r28
 2201               	/* prologue: function */
 2202               	/* frame size = 56 */
 2203               	.LM306:
 2204 0c3a 8E01      		movw r16,r28
 2205 0c3c 0F5F      		subi r16,lo8(-(1))
 2206 0c3e 1F4F      		sbci r17,hi8(-(1))
 2207 0c40 C801      		movw r24,r16
 2208 0c42 60E0      		ldi r22,lo8(.LC2)
 2209 0c44 70E0      		ldi r23,hi8(.LC2)
 2210 0c46 0E94 0000 		call strcpy
 2211               	.LM307:
 2212 0c4a 6091 0000 		lds r22,dd
 2213 0c4e 7091 0000 		lds r23,(dd)+1
 2214 0c52 8091 0000 		lds r24,fs
 2215 0c56 9091 0000 		lds r25,(fs)+1
 2216 0c5a A801      		movw r20,r16
 2217 0c5c 0E94 0000 		call open_file_in_dir
 2218 0c60 7C01      		movw r14,r24
 2219               	.LVL173:
 2220               	.LM308:
 2221 0c62 0097      		sbiw r24,0
 2222 0c64 01F4      		brne .L174
 2223               	.LVL174:
 2224               	.LBB72:
 2225               	.LM309:
 2226 0c66 80E0      		ldi r24,lo8(__c.2225)
 2227 0c68 90E0      		ldi r25,hi8(__c.2225)
 2228               	.LVL175:
 2229 0c6a 0E94 0000 		call uart_puts_p
 2230               	.LM310:
 2231 0c6e 8091 0000 		lds r24,dd
 2232 0c72 9091 0000 		lds r25,(dd)+1
 2233 0c76 B801      		movw r22,r16
 2234 0c78 AE01      		movw r20,r28
 2235 0c7a 425F      		subi r20,lo8(-(14))
 2236 0c7c 5F4F      		sbci r21,hi8(-(14))
 2237 0c7e 0E94 0000 		call fat_create_file
 2238 0c82 8823      		tst r24
 2239 0c84 01F4      		brne .L174
 2240               	.LM311:
 2241 0c86 80E0      		ldi r24,lo8(__c.2228)
 2242 0c88 90E0      		ldi r25,hi8(__c.2228)
 2243 0c8a 0E94 0000 		call uart_puts_p
 2244 0c8e 00C0      		rjmp .L176
 2245               	.LVL176:
 2246               	.L174:
 2247               	.LBE72:
 2248               	.LM312:
 2249 0c90 C701      		movw r24,r14
 2250 0c92 0E94 0000 		call fat_close_file
 2251               	.LM313:
 2252 0c96 CE01      		movw r24,r28
 2253 0c98 0196      		adiw r24,1
 2254 0c9a 0E94 0000 		call append_file
 2255               	.L176:
 2256               	/* epilogue start */
 2257               	.LM314:
 2258 0c9e E896      		adiw r28,56
 2259 0ca0 0FB6      		in __tmp_reg__,__SREG__
 2260 0ca2 F894      		cli
 2261 0ca4 DEBF      		out __SP_H__,r29
 2262 0ca6 0FBE      		out __SREG__,__tmp_reg__
 2263 0ca8 CDBF      		out __SP_L__,r28
 2264 0caa CF91      		pop r28
 2265 0cac DF91      		pop r29
 2266 0cae 1F91      		pop r17
 2267 0cb0 0F91      		pop r16
 2268 0cb2 FF90      		pop r15
 2269 0cb4 EF90      		pop r14
 2270               	.LVL177:
 2271 0cb6 0895      		ret
 2272               	.LFE11:
 2274               		.data
 2275               	.LC3:
 2276 0019 434F 4E46 		.string	"CONFIG.txt"
 2276      4947 2E74 
 2276      7874 00
 2277               	.LC4:
 2278 0024 4661 696C 		.string	"Failed to create config file"
 2278      6564 2074 
 2278      6F20 6372 
 2278      6561 7465 
 2278      2063 6F6E 
 2279               	.LC5:
 2280 0041 2165 7272 		.string	"!error opening config file\n"
 2280      6F72 206F 
 2280      7065 6E69 
 2280      6E67 2063 
 2280      6F6E 6669 
 2281               	.LC6:
 2282 005d 3234 3030 		.string	"2400"
 2282      00
 2283               	.LC7:
 2284 0062 3438 3030 		.string	"4800"
 2284      00
 2285               	.LC8:
 2286 0067 3936 3030 		.string	"9600"
 2286      00
 2287               	.LC9:
 2288 006c 3139 3230 		.string	"19200"
 2288      3000 
 2289               	.LC10:
 2290 0072 3537 3630 		.string	"57600"
 2290      3000 
 2291               	.LC11:
 2292 0078 3131 3532 		.string	"115200"
 2292      3030 00
 2293               	.LC12:
 2294 007f 2C00      		.string	","
 2295               	.LC13:
 2296 0081 2564 00   		.string	"%d"
 2297               	.LC14:
 2298 0084 6572 726F 		.string	"error writing to config\n"
 2298      7220 7772 
 2298      6974 696E 
 2298      6720 746F 
 2298      2063 6F6E 
 2299               		.text
 2300               	.global	record_config_file
 2302               	record_config_file:
 2303               	.LFB7:
 2304               	.LM315:
 2305 0cb8 7F92      		push r7
 2306 0cba 8F92      		push r8
 2307 0cbc 9F92      		push r9
 2308 0cbe AF92      		push r10
 2309 0cc0 BF92      		push r11
 2310 0cc2 CF92      		push r12
 2311 0cc4 DF92      		push r13
 2312 0cc6 EF92      		push r14
 2313 0cc8 FF92      		push r15
 2314 0cca 0F93      		push r16
 2315 0ccc 1F93      		push r17
 2316 0cce DF93      		push r29
 2317 0cd0 CF93      		push r28
 2318 0cd2 CDB7      		in r28,__SP_L__
 2319 0cd4 DEB7      		in r29,__SP_H__
 2320 0cd6 CB54      		subi r28,lo8(-(-75))
 2321 0cd8 D040      		sbci r29,hi8(-(-75))
 2322 0cda 0FB6      		in __tmp_reg__,__SREG__
 2323 0cdc F894      		cli
 2324 0cde DEBF      		out __SP_H__,r29
 2325 0ce0 0FBE      		out __SREG__,__tmp_reg__
 2326 0ce2 CDBF      		out __SP_L__,r28
 2327               	/* prologue: function */
 2328               	/* frame size = 75 */
 2329               	.LM316:
 2330 0ce4 8E01      		movw r16,r28
 2331 0ce6 0C5F      		subi r16,lo8(-(4))
 2332 0ce8 1F4F      		sbci r17,hi8(-(4))
 2333 0cea C801      		movw r24,r16
 2334 0cec 60E0      		ldi r22,lo8(.LC3)
 2335 0cee 70E0      		ldi r23,hi8(.LC3)
 2336 0cf0 0E94 0000 		call strcpy
 2337               	.LM317:
 2338 0cf4 6091 0000 		lds r22,dd
 2339 0cf8 7091 0000 		lds r23,(dd)+1
 2340 0cfc E1E2      		ldi r30,lo8(33)
 2341 0cfe EE2E      		mov r14,r30
 2342 0d00 F12C      		mov r15,__zero_reg__
 2343 0d02 EC0E      		add r14,r28
 2344 0d04 FD1E      		adc r15,r29
 2345 0d06 8091 0000 		lds r24,fs
 2346 0d0a 9091 0000 		lds r25,(fs)+1
 2347 0d0e A801      		movw r20,r16
 2348 0d10 9701      		movw r18,r14
 2349 0d12 00E0      		ldi r16,lo8(0)
 2350 0d14 0E94 0000 		call find_file_in_dir
 2351 0d18 8823      		tst r24
 2352 0d1a 01F0      		breq .L178
 2353               	.LM318:
 2354 0d1c 8091 0000 		lds r24,fs
 2355 0d20 9091 0000 		lds r25,(fs)+1
 2356 0d24 B701      		movw r22,r14
 2357 0d26 0E94 0000 		call fat_delete_file
 2358               	.L178:
 2359               	.LM319:
 2360 0d2a 8E01      		movw r16,r28
 2361 0d2c 0C5F      		subi r16,lo8(-(4))
 2362 0d2e 1F4F      		sbci r17,hi8(-(4))
 2363 0d30 8091 0000 		lds r24,dd
 2364 0d34 9091 0000 		lds r25,(dd)+1
 2365 0d38 B801      		movw r22,r16
 2366 0d3a AE01      		movw r20,r28
 2367 0d3c 4F5D      		subi r20,lo8(-(33))
 2368 0d3e 5F4F      		sbci r21,hi8(-(33))
 2369 0d40 0E94 0000 		call fat_create_file
 2370 0d44 8823      		tst r24
 2371 0d46 01F4      		brne .L179
 2372               	.LM320:
 2373 0d48 80E0      		ldi r24,lo8(.LC4)
 2374 0d4a 90E0      		ldi r25,hi8(.LC4)
 2375 0d4c 00C0      		rjmp .L191
 2376               	.L179:
 2377               	.LBB73:
 2378               	.LM321:
 2379 0d4e 6091 0000 		lds r22,dd
 2380 0d52 7091 0000 		lds r23,(dd)+1
 2381 0d56 8091 0000 		lds r24,fs
 2382 0d5a 9091 0000 		lds r25,(fs)+1
 2383 0d5e A801      		movw r20,r16
 2384 0d60 0E94 0000 		call open_file_in_dir
 2385 0d64 5C01      		movw r10,r24
 2386               	.LVL178:
 2387               	.LM322:
 2388 0d66 0097      		sbiw r24,0
 2389 0d68 01F4      		brne .L181
 2390               	.LVL179:
 2391               	.LM323:
 2392 0d6a 80E0      		ldi r24,lo8(.LC5)
 2393 0d6c 90E0      		ldi r25,hi8(.LC5)
 2394               	.LVL180:
 2395               	.L191:
 2396 0d6e 0E94 0000 		call uart_puts
 2397 0d72 00C0      		rjmp .L189
 2398               	.LVL181:
 2399               	.L181:
 2400               	.LM324:
 2401 0d74 81E0      		ldi r24,lo8(1)
 2402 0d76 90E0      		ldi r25,hi8(1)
 2403               	.LVL182:
 2404 0d78 0E94 0000 		call EEPROM_read
 2405 0d7c 082F      		mov r16,r24
 2406               	.LVL183:
 2407               	.LM325:
 2408 0d7e 82E0      		ldi r24,lo8(2)
 2409 0d80 90E0      		ldi r25,hi8(2)
 2410 0d82 0E94 0000 		call EEPROM_read
 2411 0d86 782E      		mov r7,r24
 2412               	.LVL184:
 2413               	.LM326:
 2414 0d88 85E0      		ldi r24,lo8(5)
 2415 0d8a 90E0      		ldi r25,hi8(5)
 2416 0d8c 0E94 0000 		call EEPROM_read
 2417 0d90 982E      		mov r9,r24
 2418               	.LVL185:
 2419               	.LM327:
 2420 0d92 86E0      		ldi r24,lo8(6)
 2421 0d94 90E0      		ldi r25,hi8(6)
 2422 0d96 0E94 0000 		call EEPROM_read
 2423 0d9a 882E      		mov r8,r24
 2424               	.LVL186:
 2425               	.LM328:
 2426 0d9c 0023      		tst r16
 2427 0d9e 01F4      		brne .L182
 2428 0da0 CE01      		movw r24,r28
 2429 0da2 4196      		adiw r24,17
 2430 0da4 60E0      		ldi r22,lo8(.LC6)
 2431 0da6 70E0      		ldi r23,hi8(.LC6)
 2432 0da8 00C0      		rjmp .L190
 2433               	.L182:
 2434               	.LM329:
 2435 0daa 0430      		cpi r16,lo8(4)
 2436 0dac 01F4      		brne .L184
 2437 0dae CE01      		movw r24,r28
 2438 0db0 4196      		adiw r24,17
 2439 0db2 60E0      		ldi r22,lo8(.LC7)
 2440 0db4 70E0      		ldi r23,hi8(.LC7)
 2441 0db6 00C0      		rjmp .L190
 2442               	.L184:
 2443               	.LM330:
 2444 0db8 0130      		cpi r16,lo8(1)
 2445 0dba 01F4      		brne .L186
 2446 0dbc CE01      		movw r24,r28
 2447 0dbe 4196      		adiw r24,17
 2448 0dc0 60E0      		ldi r22,lo8(.LC8)
 2449 0dc2 70E0      		ldi r23,hi8(.LC8)
 2450 0dc4 00C0      		rjmp .L190
 2451               	.L186:
 2452               	.LM331:
 2453 0dc6 0530      		cpi r16,lo8(5)
 2454 0dc8 01F4      		brne .L183
 2455 0dca CE01      		movw r24,r28
 2456 0dcc 4196      		adiw r24,17
 2457 0dce 60E0      		ldi r22,lo8(.LC9)
 2458 0dd0 70E0      		ldi r23,hi8(.LC9)
 2459 0dd2 00C0      		rjmp .L190
 2460               	.L183:
 2461               	.LM332:
 2462 0dd4 0230      		cpi r16,lo8(2)
 2463 0dd6 01F4      		brne .L185
 2464 0dd8 CE01      		movw r24,r28
 2465 0dda 4196      		adiw r24,17
 2466 0ddc 60E0      		ldi r22,lo8(.LC10)
 2467 0dde 70E0      		ldi r23,hi8(.LC10)
 2468 0de0 00C0      		rjmp .L190
 2469               	.L185:
 2470               	.LM333:
 2471 0de2 0330      		cpi r16,lo8(3)
 2472 0de4 01F4      		brne .L187
 2473 0de6 CE01      		movw r24,r28
 2474 0de8 4196      		adiw r24,17
 2475 0dea 60E0      		ldi r22,lo8(.LC11)
 2476 0dec 70E0      		ldi r23,hi8(.LC11)
 2477               	.L190:
 2478 0dee 0E94 0000 		call strcpy
 2479               	.L187:
 2480               	.LM334:
 2481 0df2 8E01      		movw r16,r28
 2482               	.LVL187:
 2483 0df4 0F5E      		subi r16,lo8(-(17))
 2484 0df6 1F4F      		sbci r17,hi8(-(17))
 2485 0df8 C801      		movw r24,r16
 2486 0dfa 60E0      		ldi r22,lo8(.LC12)
 2487 0dfc 70E0      		ldi r23,hi8(.LC12)
 2488 0dfe 0E94 0000 		call strcat
 2489               	.LM335:
 2490 0e02 00D0      		rcall .
 2491 0e04 00D0      		rcall .
 2492 0e06 00D0      		rcall .
 2493 0e08 EDB7      		in r30,__SP_L__
 2494 0e0a FEB7      		in r31,__SP_H__
 2495 0e0c 3196      		adiw r30,1
 2496 0e0e 7E01      		movw r14,r28
 2497 0e10 0894      		sec
 2498 0e12 E11C      		adc r14,__zero_reg__
 2499 0e14 F11C      		adc r15,__zero_reg__
 2500 0e16 ADB7      		in r26,__SP_L__
 2501 0e18 BEB7      		in r27,__SP_H__
 2502 0e1a 1296      		adiw r26,1+1
 2503 0e1c FC92      		st X,r15
 2504 0e1e EE92      		st -X,r14
 2505 0e20 1197      		sbiw r26,1
 2506 0e22 50E0      		ldi r21,lo8(.LC13)
 2507 0e24 C52E      		mov r12,r21
 2508 0e26 50E0      		ldi r21,hi8(.LC13)
 2509 0e28 D52E      		mov r13,r21
 2510 0e2a D382      		std Z+3,r13
 2511 0e2c C282      		std Z+2,r12
 2512 0e2e 9482      		std Z+4,r9
 2513 0e30 1582      		std Z+5,__zero_reg__
 2514 0e32 0E94 0000 		call sprintf
 2515               	.LM336:
 2516 0e36 8DB7      		in r24,__SP_L__
 2517 0e38 9EB7      		in r25,__SP_H__
 2518 0e3a 0696      		adiw r24,6
 2519 0e3c 0FB6      		in __tmp_reg__,__SREG__
 2520 0e3e F894      		cli
 2521 0e40 9EBF      		out __SP_H__,r25
 2522 0e42 0FBE      		out __SREG__,__tmp_reg__
 2523 0e44 8DBF      		out __SP_L__,r24
 2524 0e46 C801      		movw r24,r16
 2525 0e48 B701      		movw r22,r14
 2526 0e4a 0E94 0000 		call strcat
 2527               	.LM337:
 2528 0e4e C801      		movw r24,r16
 2529 0e50 60E0      		ldi r22,lo8(.LC12)
 2530 0e52 70E0      		ldi r23,hi8(.LC12)
 2531 0e54 0E94 0000 		call strcat
 2532               	.LM338:
 2533 0e58 00D0      		rcall .
 2534 0e5a 00D0      		rcall .
 2535 0e5c 00D0      		rcall .
 2536 0e5e EDB7      		in r30,__SP_L__
 2537 0e60 FEB7      		in r31,__SP_H__
 2538 0e62 3196      		adiw r30,1
 2539 0e64 ADB7      		in r26,__SP_L__
 2540 0e66 BEB7      		in r27,__SP_H__
 2541 0e68 1296      		adiw r26,1+1
 2542 0e6a FC92      		st X,r15
 2543 0e6c EE92      		st -X,r14
 2544 0e6e 1197      		sbiw r26,1
 2545 0e70 D382      		std Z+3,r13
 2546 0e72 C282      		std Z+2,r12
 2547 0e74 8482      		std Z+4,r8
 2548 0e76 1582      		std Z+5,__zero_reg__
 2549 0e78 0E94 0000 		call sprintf
 2550               	.LM339:
 2551 0e7c 8DB7      		in r24,__SP_L__
 2552 0e7e 9EB7      		in r25,__SP_H__
 2553 0e80 0696      		adiw r24,6
 2554 0e82 0FB6      		in __tmp_reg__,__SREG__
 2555 0e84 F894      		cli
 2556 0e86 9EBF      		out __SP_H__,r25
 2557 0e88 0FBE      		out __SREG__,__tmp_reg__
 2558 0e8a 8DBF      		out __SP_L__,r24
 2559 0e8c C801      		movw r24,r16
 2560 0e8e B701      		movw r22,r14
 2561 0e90 0E94 0000 		call strcat
 2562               	.LM340:
 2563 0e94 C801      		movw r24,r16
 2564 0e96 60E0      		ldi r22,lo8(.LC12)
 2565 0e98 70E0      		ldi r23,hi8(.LC12)
 2566 0e9a 0E94 0000 		call strcat
 2567               	.LM341:
 2568 0e9e 00D0      		rcall .
 2569 0ea0 00D0      		rcall .
 2570 0ea2 00D0      		rcall .
 2571 0ea4 EDB7      		in r30,__SP_L__
 2572 0ea6 FEB7      		in r31,__SP_H__
 2573 0ea8 3196      		adiw r30,1
 2574 0eaa ADB7      		in r26,__SP_L__
 2575 0eac BEB7      		in r27,__SP_H__
 2576 0eae 1296      		adiw r26,1+1
 2577 0eb0 FC92      		st X,r15
 2578 0eb2 EE92      		st -X,r14
 2579 0eb4 1197      		sbiw r26,1
 2580 0eb6 D382      		std Z+3,r13
 2581 0eb8 C282      		std Z+2,r12
 2582 0eba 7482      		std Z+4,r7
 2583 0ebc 1582      		std Z+5,__zero_reg__
 2584 0ebe 0E94 0000 		call sprintf
 2585               	.LM342:
 2586 0ec2 8DB7      		in r24,__SP_L__
 2587 0ec4 9EB7      		in r25,__SP_H__
 2588 0ec6 0696      		adiw r24,6
 2589 0ec8 0FB6      		in __tmp_reg__,__SREG__
 2590 0eca F894      		cli
 2591 0ecc 9EBF      		out __SP_H__,r25
 2592 0ece 0FBE      		out __SREG__,__tmp_reg__
 2593 0ed0 8DBF      		out __SP_L__,r24
 2594 0ed2 C801      		movw r24,r16
 2595 0ed4 B701      		movw r22,r14
 2596 0ed6 0E94 0000 		call strcat
 2597               	.LM343:
 2598 0eda 80E0      		ldi r24,lo8(input_buffer)
 2599 0edc 90E0      		ldi r25,hi8(input_buffer)
 2600 0ede B801      		movw r22,r16
 2601 0ee0 0E94 0000 		call strcpy
 2602               	.LM344:
 2603 0ee4 F801      		movw r30,r16
 2604 0ee6 0190      		ld __tmp_reg__,Z+
 2605 0ee8 0020      		tst __tmp_reg__
 2606 0eea 01F4      		brne .-6
 2607 0eec 3197      		sbiw r30,1
 2608 0eee E01B      		sub r30,r16
 2609 0ef0 F10B      		sbc r31,r17
 2610 0ef2 C501      		movw r24,r10
 2611 0ef4 60E0      		ldi r22,lo8(input_buffer)
 2612 0ef6 70E0      		ldi r23,hi8(input_buffer)
 2613 0ef8 AF01      		movw r20,r30
 2614 0efa 0E94 0000 		call fat_write_file
 2615 0efe F801      		movw r30,r16
 2616 0f00 0190      		ld __tmp_reg__,Z+
 2617 0f02 0020      		tst __tmp_reg__
 2618 0f04 01F4      		brne .-6
 2619 0f06 3197      		sbiw r30,1
 2620 0f08 E01B      		sub r30,r16
 2621 0f0a F10B      		sbc r31,r17
 2622 0f0c 8E17      		cp r24,r30
 2623 0f0e 9F07      		cpc r25,r31
 2624 0f10 01F0      		breq .L188
 2625               	.LM345:
 2626 0f12 80E0      		ldi r24,lo8(.LC14)
 2627 0f14 90E0      		ldi r25,hi8(.LC14)
 2628 0f16 0E94 0000 		call uart_puts
 2629               	.L188:
 2630               	.LM346:
 2631 0f1a C501      		movw r24,r10
 2632 0f1c 0E94 0000 		call fat_close_file
 2633               	.LM347:
 2634 0f20 0E94 0000 		call sd_raw_sync
 2635               	.L189:
 2636               	/* epilogue start */
 2637               	.LBE73:
 2638               	.LM348:
 2639 0f24 C55B      		subi r28,lo8(-(75))
 2640 0f26 DF4F      		sbci r29,hi8(-(75))
 2641 0f28 0FB6      		in __tmp_reg__,__SREG__
 2642 0f2a F894      		cli
 2643 0f2c DEBF      		out __SP_H__,r29
 2644 0f2e 0FBE      		out __SREG__,__tmp_reg__
 2645 0f30 CDBF      		out __SP_L__,r28
 2646 0f32 CF91      		pop r28
 2647 0f34 DF91      		pop r29
 2648 0f36 1F91      		pop r17
 2649 0f38 0F91      		pop r16
 2650 0f3a FF90      		pop r15
 2651 0f3c EF90      		pop r14
 2652 0f3e DF90      		pop r13
 2653 0f40 CF90      		pop r12
 2654 0f42 BF90      		pop r11
 2655 0f44 AF90      		pop r10
 2656               	.LVL188:
 2657 0f46 9F90      		pop r9
 2658               	.LVL189:
 2659 0f48 8F90      		pop r8
 2660               	.LVL190:
 2661 0f4a 7F90      		pop r7
 2662               	.LVL191:
 2663 0f4c 0895      		ret
 2664               	.LFE7:
 2666               	.global	system_menu
 2668               	system_menu:
 2669               	.LFB29:
 2670               	.LM349:
 2671 0f4e FF92      		push r15
 2672 0f50 0F93      		push r16
 2673 0f52 1F93      		push r17
 2674 0f54 DF93      		push r29
 2675 0f56 CF93      		push r28
 2676 0f58 00D0      		rcall .
 2677 0f5a 00D0      		rcall .
 2678 0f5c 0F92      		push __tmp_reg__
 2679 0f5e CDB7      		in r28,__SP_L__
 2680 0f60 DEB7      		in r29,__SP_H__
 2681               	/* prologue: function */
 2682               	/* frame size = 5 */
 2683               	.LM350:
 2684 0f62 82E0      		ldi r24,lo8(2)
 2685 0f64 90E0      		ldi r25,hi8(2)
 2686 0f66 0E94 0000 		call EEPROM_read
 2687 0f6a F82E      		mov r15,r24
 2688               	.LVL192:
 2689               	.LBB74:
 2690               	.LM351:
 2691 0f6c 8E01      		movw r16,r28
 2692 0f6e 0F5F      		subi r16,lo8(-(1))
 2693 0f70 1F4F      		sbci r17,hi8(-(1))
 2694               	.L210:
 2695               	.LM352:
 2696 0f72 80E0      		ldi r24,lo8(__c.2919)
 2697 0f74 90E0      		ldi r25,hi8(__c.2919)
 2698 0f76 0E94 0000 		call uart_puts_p
 2699               	.LM353:
 2700 0f7a 80E0      		ldi r24,lo8(__c.2921)
 2701 0f7c 90E0      		ldi r25,hi8(__c.2921)
 2702 0f7e 0E94 0000 		call uart_puts_p
 2703               	.LM354:
 2704 0f82 FF20      		tst r15
 2705 0f84 01F4      		brne .L193
 2706 0f86 80E0      		ldi r24,lo8(__c.2923)
 2707 0f88 90E0      		ldi r25,hi8(__c.2923)
 2708 0f8a 00C0      		rjmp .L211
 2709               	.L193:
 2710               	.LM355:
 2711 0f8c 81E0      		ldi r24,lo8(1)
 2712 0f8e F816      		cp r15,r24
 2713 0f90 01F4      		brne .L195
 2714 0f92 80E0      		ldi r24,lo8(__c.2925)
 2715 0f94 90E0      		ldi r25,hi8(__c.2925)
 2716 0f96 00C0      		rjmp .L211
 2717               	.L195:
 2718               	.LM356:
 2719 0f98 82E0      		ldi r24,lo8(2)
 2720 0f9a F816      		cp r15,r24
 2721 0f9c 01F4      		brne .L194
 2722 0f9e 80E0      		ldi r24,lo8(__c.2927)
 2723 0fa0 90E0      		ldi r25,hi8(__c.2927)
 2724               	.L211:
 2725 0fa2 0E94 0000 		call uart_puts_p
 2726               	.L194:
 2727               	.LM357:
 2728 0fa6 80E0      		ldi r24,lo8(__c.2929)
 2729 0fa8 90E0      		ldi r25,hi8(__c.2929)
 2730 0faa 0E94 0000 		call uart_puts_p
 2731               	.LM358:
 2732 0fae 80E0      		ldi r24,lo8(__c.2931)
 2733 0fb0 90E0      		ldi r25,hi8(__c.2931)
 2734 0fb2 0E94 0000 		call uart_puts_p
 2735               	.LM359:
 2736 0fb6 6091 0000 		lds r22,setting_escape_character
 2737 0fba 70E0      		ldi r23,lo8(0)
 2738 0fbc 80E0      		ldi r24,lo8(0)
 2739 0fbe 90E0      		ldi r25,hi8(0)
 2740 0fc0 0E94 0000 		call uart_putdw_dec
 2741               	.LM360:
 2742 0fc4 80E0      		ldi r24,lo8(__c.2933)
 2743 0fc6 90E0      		ldi r25,hi8(__c.2933)
 2744 0fc8 0E94 0000 		call uart_puts_p
 2745               	.LM361:
 2746 0fcc 6091 0000 		lds r22,setting_max_escape_character
 2747 0fd0 70E0      		ldi r23,lo8(0)
 2748 0fd2 80E0      		ldi r24,lo8(0)
 2749 0fd4 90E0      		ldi r25,hi8(0)
 2750 0fd6 0E94 0000 		call uart_putdw_dec
 2751               	.LM362:
 2752 0fda 80E0      		ldi r24,lo8(__c.2935)
 2753 0fdc 90E0      		ldi r25,hi8(__c.2935)
 2754 0fde 0E94 0000 		call uart_puts_p
 2755               	.LM363:
 2756 0fe2 80E0      		ldi r24,lo8(__c.2937)
 2757 0fe4 90E0      		ldi r25,hi8(__c.2937)
 2758 0fe6 0E94 0000 		call uart_puts_p
 2759               	.LM364:
 2760 0fea 80E0      		ldi r24,lo8(__c.2939)
 2761 0fec 90E0      		ldi r25,hi8(__c.2939)
 2762 0fee 0E94 0000 		call uart_puts_p
 2763               	.LM365:
 2764 0ff2 80E0      		ldi r24,lo8(__c.2941)
 2765 0ff4 90E0      		ldi r25,hi8(__c.2941)
 2766 0ff6 0E94 0000 		call uart_puts_p
 2767               	.LM366:
 2768 0ffa 80E0      		ldi r24,lo8(__c.2943)
 2769 0ffc 90E0      		ldi r25,hi8(__c.2943)
 2770 0ffe 0E94 0000 		call uart_puts_p
 2771               	.LM367:
 2772 1002 80E0      		ldi r24,lo8(__c.2945)
 2773 1004 90E0      		ldi r25,hi8(__c.2945)
 2774 1006 0E94 0000 		call uart_puts_p
 2775               	.LM368:
 2776 100a 80E0      		ldi r24,lo8(__c.2947)
 2777 100c 90E0      		ldi r25,hi8(__c.2947)
 2778 100e 0E94 0000 		call uart_puts_p
 2779               	.LM369:
 2780 1012 80E0      		ldi r24,lo8(__c.2949)
 2781 1014 90E0      		ldi r25,hi8(__c.2949)
 2782 1016 0E94 0000 		call uart_puts_p
 2783               	.LM370:
 2784 101a 80E0      		ldi r24,lo8(__c.2951)
 2785 101c 90E0      		ldi r25,hi8(__c.2951)
 2786 101e 0E94 0000 		call uart_puts_p
 2787               	.LM371:
 2788 1022 8EE3      		ldi r24,lo8(62)
 2789 1024 0E94 0000 		call uart_putc
 2790               	.LM372:
 2791 1028 C801      		movw r24,r16
 2792 102a 65E0      		ldi r22,lo8(5)
 2793 102c 0E94 0000 		call read_line
 2794 1030 8823      		tst r24
 2795 1032 01F4      		brne .+2
 2796 1034 00C0      		rjmp .L210
 2797               	.LM373:
 2798 1036 C801      		movw r24,r16
 2799 1038 60E0      		ldi r22,lo8(__c.2955)
 2800 103a 70E0      		ldi r23,hi8(__c.2955)
 2801 103c 0E94 0000 		call strcmp_P
 2802 1040 892B      		or r24,r25
 2803 1042 01F4      		brne .L197
 2804               	.LM374:
 2805 1044 80E0      		ldi r24,lo8(__c.2957)
 2806 1046 90E0      		ldi r25,hi8(__c.2957)
 2807 1048 0E94 0000 		call uart_puts_p
 2808               	.LM375:
 2809 104c 82E0      		ldi r24,lo8(2)
 2810 104e 90E0      		ldi r25,hi8(2)
 2811 1050 60E0      		ldi r22,lo8(0)
 2812 1052 00C0      		rjmp .L213
 2813               	.L197:
 2814               	.LM376:
 2815 1054 C801      		movw r24,r16
 2816 1056 60E0      		ldi r22,lo8(__c.2959)
 2817 1058 70E0      		ldi r23,hi8(__c.2959)
 2818 105a 0E94 0000 		call strcmp_P
 2819 105e 892B      		or r24,r25
 2820 1060 01F4      		brne .L199
 2821               	.LM377:
 2822 1062 80E0      		ldi r24,lo8(__c.2961)
 2823 1064 90E0      		ldi r25,hi8(__c.2961)
 2824 1066 0E94 0000 		call uart_puts_p
 2825               	.LM378:
 2826 106a 82E0      		ldi r24,lo8(2)
 2827 106c 90E0      		ldi r25,hi8(2)
 2828 106e 61E0      		ldi r22,lo8(1)
 2829               	.L213:
 2830 1070 0E94 0000 		call EEPROM_write
 2831               	.LM379:
 2832 1074 0E94 0000 		call record_config_file
 2833 1078 00C0      		rjmp .L205
 2834               	.L199:
 2835               	.LM380:
 2836 107a C801      		movw r24,r16
 2837 107c 60E0      		ldi r22,lo8(__c.2963)
 2838 107e 70E0      		ldi r23,hi8(__c.2963)
 2839 1080 0E94 0000 		call strcmp_P
 2840 1084 892B      		or r24,r25
 2841 1086 01F4      		brne .L200
 2842               	.LM381:
 2843 1088 80E0      		ldi r24,lo8(__c.2965)
 2844 108a 90E0      		ldi r25,hi8(__c.2965)
 2845 108c 0E94 0000 		call uart_puts_p
 2846               	.LM382:
 2847 1090 82E0      		ldi r24,lo8(2)
 2848 1092 90E0      		ldi r25,hi8(2)
 2849 1094 62E0      		ldi r22,lo8(2)
 2850 1096 00C0      		rjmp .L213
 2851               	.L200:
 2852               	.LM383:
 2853 1098 C801      		movw r24,r16
 2854 109a 60E0      		ldi r22,lo8(__c.2967)
 2855 109c 70E0      		ldi r23,hi8(__c.2967)
 2856 109e 0E94 0000 		call strcmp_P
 2857 10a2 892B      		or r24,r25
 2858 10a4 01F4      		brne .L201
 2859               	.LM384:
 2860 10a6 80E0      		ldi r24,lo8(__c.2969)
 2861 10a8 90E0      		ldi r25,hi8(__c.2969)
 2862 10aa 0E94 0000 		call uart_puts_p
 2863               	.LM385:
 2864 10ae 83E0      		ldi r24,lo8(3)
 2865 10b0 90E0      		ldi r25,hi8(3)
 2866 10b2 60E0      		ldi r22,lo8(0)
 2867 10b4 0E94 0000 		call EEPROM_write
 2868               	.LM386:
 2869 10b8 84E0      		ldi r24,lo8(4)
 2870 10ba 90E0      		ldi r25,hi8(4)
 2871 10bc 60E0      		ldi r22,lo8(0)
 2872 10be 0E94 0000 		call EEPROM_write
 2873 10c2 00C0      		rjmp .L205
 2874               	.L201:
 2875               	.LM387:
 2876 10c4 C801      		movw r24,r16
 2877 10c6 60E0      		ldi r22,lo8(__c.2971)
 2878 10c8 70E0      		ldi r23,hi8(__c.2971)
 2879 10ca 0E94 0000 		call strcmp_P
 2880 10ce 892B      		or r24,r25
 2881 10d0 01F4      		brne .L202
 2882               	.LM388:
 2883 10d2 80E0      		ldi r24,lo8(__c.2973)
 2884 10d4 90E0      		ldi r25,hi8(__c.2973)
 2885 10d6 0E94 0000 		call uart_puts_p
 2886               	.LM389:
 2887 10da 0E94 0000 		call uart_getc
 2888 10de 682F      		mov r22,r24
 2889 10e0 8093 0000 		sts setting_escape_character,r24
 2890               	.LM390:
 2891 10e4 85E0      		ldi r24,lo8(5)
 2892 10e6 90E0      		ldi r25,hi8(5)
 2893 10e8 0E94 0000 		call EEPROM_write
 2894               	.LM391:
 2895 10ec 0E94 0000 		call record_config_file
 2896               	.LM392:
 2897 10f0 80E0      		ldi r24,lo8(__c.2975)
 2898 10f2 90E0      		ldi r25,hi8(__c.2975)
 2899 10f4 0E94 0000 		call uart_puts_p
 2900               	.LM393:
 2901 10f8 6091 0000 		lds r22,setting_escape_character
 2902 10fc 70E0      		ldi r23,lo8(0)
 2903 10fe 80E0      		ldi r24,lo8(0)
 2904 1100 90E0      		ldi r25,hi8(0)
 2905 1102 0E94 0000 		call uart_putdw_dec
 2906               	.LM394:
 2907 1106 80E0      		ldi r24,lo8(__c.2977)
 2908 1108 90E0      		ldi r25,hi8(__c.2977)
 2909 110a 00C0      		rjmp .L212
 2910               	.L202:
 2911               	.LM395:
 2912 110c C801      		movw r24,r16
 2913 110e 60E0      		ldi r22,lo8(__c.2979)
 2914 1110 70E0      		ldi r23,hi8(__c.2979)
 2915 1112 0E94 0000 		call strcmp_P
 2916 1116 892B      		or r24,r25
 2917 1118 01F4      		brne .L203
 2918               	.L207:
 2919               	.LBB75:
 2920               	.LM396:
 2921 111a 80E0      		ldi r24,lo8(__c.2982)
 2922 111c 90E0      		ldi r25,hi8(__c.2982)
 2923 111e 0E94 0000 		call uart_puts_p
 2924               	.LM397:
 2925 1122 0E94 0000 		call uart_getc
 2926 1126 682F      		mov r22,r24
 2927               	.LVL193:
 2928 1128 6053      		subi r22,lo8(-(-48))
 2929               	.LM398:
 2930 112a 6A30      		cpi r22,lo8(10)
 2931 112c 00F4      		brsh .L207
 2932               	.LM399:
 2933 112e 6093 0000 		sts setting_max_escape_character,r22
 2934               	.LM400:
 2935 1132 86E0      		ldi r24,lo8(6)
 2936 1134 90E0      		ldi r25,hi8(6)
 2937 1136 0E94 0000 		call EEPROM_write
 2938               	.LVL194:
 2939               	.LM401:
 2940 113a 0E94 0000 		call record_config_file
 2941               	.LM402:
 2942 113e 80E0      		ldi r24,lo8(__c.2987)
 2943 1140 90E0      		ldi r25,hi8(__c.2987)
 2944 1142 0E94 0000 		call uart_puts_p
 2945               	.LM403:
 2946 1146 6091 0000 		lds r22,setting_max_escape_character
 2947 114a 70E0      		ldi r23,lo8(0)
 2948 114c 80E0      		ldi r24,lo8(0)
 2949 114e 90E0      		ldi r25,hi8(0)
 2950 1150 0E94 0000 		call uart_putdw_dec
 2951               	.LM404:
 2952 1154 80E0      		ldi r24,lo8(__c.2989)
 2953 1156 90E0      		ldi r25,hi8(__c.2989)
 2954 1158 00C0      		rjmp .L212
 2955               	.L203:
 2956               	.LBE75:
 2957               	.LM405:
 2958 115a C801      		movw r24,r16
 2959 115c 60E0      		ldi r22,lo8(__c.2991)
 2960 115e 70E0      		ldi r23,hi8(__c.2991)
 2961 1160 0E94 0000 		call strcmp_P
 2962 1164 892B      		or r24,r25
 2963 1166 01F0      		breq .+2
 2964 1168 00C0      		rjmp .L210
 2965               	.LM406:
 2966 116a 80E0      		ldi r24,lo8(__c.2993)
 2967 116c 90E0      		ldi r25,hi8(__c.2993)
 2968               	.L212:
 2969 116e 0E94 0000 		call uart_puts_p
 2970               	.L205:
 2971               	/* epilogue start */
 2972               	.LBE74:
 2973               	.LM407:
 2974 1172 0F90      		pop __tmp_reg__
 2975 1174 0F90      		pop __tmp_reg__
 2976 1176 0F90      		pop __tmp_reg__
 2977 1178 0F90      		pop __tmp_reg__
 2978 117a 0F90      		pop __tmp_reg__
 2979 117c CF91      		pop r28
 2980 117e DF91      		pop r29
 2981 1180 1F91      		pop r17
 2982 1182 0F91      		pop r16
 2983 1184 FF90      		pop r15
 2984               	.LVL195:
 2985 1186 0895      		ret
 2986               	.LFE29:
 2988               	.global	baud_menu
 2990               	baud_menu:
 2991               	.LFB28:
 2992               	.LM408:
 2993 1188 FF92      		push r15
 2994 118a 0F93      		push r16
 2995 118c 1F93      		push r17
 2996 118e DF93      		push r29
 2997 1190 CF93      		push r28
 2998 1192 00D0      		rcall .
 2999 1194 00D0      		rcall .
 3000 1196 0F92      		push __tmp_reg__
 3001 1198 CDB7      		in r28,__SP_L__
 3002 119a DEB7      		in r29,__SP_H__
 3003               	/* prologue: function */
 3004               	/* frame size = 5 */
 3005               	.LM409:
 3006 119c 81E0      		ldi r24,lo8(1)
 3007 119e 90E0      		ldi r25,hi8(1)
 3008 11a0 0E94 0000 		call EEPROM_read
 3009 11a4 F82E      		mov r15,r24
 3010               	.LVL196:
 3011               	.LBB76:
 3012               	.LM410:
 3013 11a6 8E01      		movw r16,r28
 3014 11a8 0F5F      		subi r16,lo8(-(1))
 3015 11aa 1F4F      		sbci r17,hi8(-(1))
 3016               	.L232:
 3017               	.LM411:
 3018 11ac 80E0      		ldi r24,lo8(__c.2840)
 3019 11ae 90E0      		ldi r25,hi8(__c.2840)
 3020 11b0 0E94 0000 		call uart_puts_p
 3021               	.LM412:
 3022 11b4 80E0      		ldi r24,lo8(__c.2842)
 3023 11b6 90E0      		ldi r25,hi8(__c.2842)
 3024 11b8 0E94 0000 		call uart_puts_p
 3025               	.LM413:
 3026 11bc 84E0      		ldi r24,lo8(4)
 3027 11be F816      		cp r15,r24
 3028 11c0 01F4      		brne .L215
 3029 11c2 80E0      		ldi r24,lo8(__c.2844)
 3030 11c4 90E0      		ldi r25,hi8(__c.2844)
 3031 11c6 00C0      		rjmp .L233
 3032               	.L215:
 3033               	.LM414:
 3034 11c8 FF20      		tst r15
 3035 11ca 01F4      		brne .L217
 3036 11cc 80E0      		ldi r24,lo8(__c.2846)
 3037 11ce 90E0      		ldi r25,hi8(__c.2846)
 3038 11d0 00C0      		rjmp .L233
 3039               	.L217:
 3040               	.LM415:
 3041 11d2 81E0      		ldi r24,lo8(1)
 3042 11d4 F816      		cp r15,r24
 3043 11d6 01F4      		brne .L219
 3044 11d8 80E0      		ldi r24,lo8(__c.2848)
 3045 11da 90E0      		ldi r25,hi8(__c.2848)
 3046 11dc 00C0      		rjmp .L233
 3047               	.L219:
 3048               	.LM416:
 3049 11de 85E0      		ldi r24,lo8(5)
 3050 11e0 F816      		cp r15,r24
 3051 11e2 01F4      		brne .L216
 3052 11e4 80E0      		ldi r24,lo8(__c.2850)
 3053 11e6 90E0      		ldi r25,hi8(__c.2850)
 3054 11e8 00C0      		rjmp .L233
 3055               	.L216:
 3056               	.LM417:
 3057 11ea 82E0      		ldi r24,lo8(2)
 3058 11ec F816      		cp r15,r24
 3059 11ee 01F4      		brne .L218
 3060 11f0 80E0      		ldi r24,lo8(__c.2852)
 3061 11f2 90E0      		ldi r25,hi8(__c.2852)
 3062 11f4 00C0      		rjmp .L233
 3063               	.L218:
 3064               	.LM418:
 3065 11f6 83E0      		ldi r24,lo8(3)
 3066 11f8 F816      		cp r15,r24
 3067 11fa 01F4      		brne .L220
 3068 11fc 80E0      		ldi r24,lo8(__c.2854)
 3069 11fe 90E0      		ldi r25,hi8(__c.2854)
 3070               	.L233:
 3071 1200 0E94 0000 		call uart_puts_p
 3072               	.L220:
 3073               	.LM419:
 3074 1204 80E0      		ldi r24,lo8(__c.2856)
 3075 1206 90E0      		ldi r25,hi8(__c.2856)
 3076 1208 0E94 0000 		call uart_puts_p
 3077               	.LM420:
 3078 120c 80E0      		ldi r24,lo8(__c.2858)
 3079 120e 90E0      		ldi r25,hi8(__c.2858)
 3080 1210 0E94 0000 		call uart_puts_p
 3081               	.LM421:
 3082 1214 80E0      		ldi r24,lo8(__c.2860)
 3083 1216 90E0      		ldi r25,hi8(__c.2860)
 3084 1218 0E94 0000 		call uart_puts_p
 3085               	.LM422:
 3086 121c 80E0      		ldi r24,lo8(__c.2862)
 3087 121e 90E0      		ldi r25,hi8(__c.2862)
 3088 1220 0E94 0000 		call uart_puts_p
 3089               	.LM423:
 3090 1224 80E0      		ldi r24,lo8(__c.2864)
 3091 1226 90E0      		ldi r25,hi8(__c.2864)
 3092 1228 0E94 0000 		call uart_puts_p
 3093               	.LM424:
 3094 122c 80E0      		ldi r24,lo8(__c.2866)
 3095 122e 90E0      		ldi r25,hi8(__c.2866)
 3096 1230 0E94 0000 		call uart_puts_p
 3097               	.LM425:
 3098 1234 80E0      		ldi r24,lo8(__c.2868)
 3099 1236 90E0      		ldi r25,hi8(__c.2868)
 3100 1238 0E94 0000 		call uart_puts_p
 3101               	.LM426:
 3102 123c 80E0      		ldi r24,lo8(__c.2870)
 3103 123e 90E0      		ldi r25,hi8(__c.2870)
 3104 1240 0E94 0000 		call uart_puts_p
 3105               	.LM427:
 3106 1244 80E0      		ldi r24,lo8(__c.2872)
 3107 1246 90E0      		ldi r25,hi8(__c.2872)
 3108 1248 0E94 0000 		call uart_puts_p
 3109               	.LM428:
 3110 124c 8EE3      		ldi r24,lo8(62)
 3111 124e 0E94 0000 		call uart_putc
 3112               	.LM429:
 3113 1252 C801      		movw r24,r16
 3114 1254 65E0      		ldi r22,lo8(5)
 3115 1256 0E94 0000 		call read_line
 3116 125a 8823      		tst r24
 3117 125c 01F4      		brne .+2
 3118 125e 00C0      		rjmp .L232
 3119               	.LM430:
 3120 1260 C801      		movw r24,r16
 3121 1262 60E0      		ldi r22,lo8(__c.2876)
 3122 1264 70E0      		ldi r23,hi8(__c.2876)
 3123 1266 0E94 0000 		call strcmp_P
 3124 126a 892B      		or r24,r25
 3125 126c 01F4      		brne .L222
 3126               	.LM431:
 3127 126e 80E0      		ldi r24,lo8(__c.2878)
 3128 1270 90E0      		ldi r25,hi8(__c.2878)
 3129 1272 0E94 0000 		call uart_puts_p
 3130               	.LM432:
 3131 1276 81E0      		ldi r24,lo8(1)
 3132 1278 90E0      		ldi r25,hi8(1)
 3133 127a 60E0      		ldi r22,lo8(0)
 3134 127c 00C0      		rjmp .L234
 3135               	.L222:
 3136               	.LM433:
 3137 127e C801      		movw r24,r16
 3138 1280 60E0      		ldi r22,lo8(__c.2880)
 3139 1282 70E0      		ldi r23,hi8(__c.2880)
 3140 1284 0E94 0000 		call strcmp_P
 3141 1288 892B      		or r24,r25
 3142 128a 01F4      		brne .L224
 3143               	.LM434:
 3144 128c 80E0      		ldi r24,lo8(__c.2882)
 3145 128e 90E0      		ldi r25,hi8(__c.2882)
 3146 1290 0E94 0000 		call uart_puts_p
 3147               	.LM435:
 3148 1294 81E0      		ldi r24,lo8(1)
 3149 1296 90E0      		ldi r25,hi8(1)
 3150 1298 64E0      		ldi r22,lo8(4)
 3151 129a 00C0      		rjmp .L234
 3152               	.L224:
 3153               	.LM436:
 3154 129c C801      		movw r24,r16
 3155 129e 60E0      		ldi r22,lo8(__c.2884)
 3156 12a0 70E0      		ldi r23,hi8(__c.2884)
 3157 12a2 0E94 0000 		call strcmp_P
 3158 12a6 892B      		or r24,r25
 3159 12a8 01F4      		brne .L225
 3160               	.LM437:
 3161 12aa 80E0      		ldi r24,lo8(__c.2886)
 3162 12ac 90E0      		ldi r25,hi8(__c.2886)
 3163 12ae 0E94 0000 		call uart_puts_p
 3164               	.LM438:
 3165 12b2 81E0      		ldi r24,lo8(1)
 3166 12b4 90E0      		ldi r25,hi8(1)
 3167 12b6 61E0      		ldi r22,lo8(1)
 3168 12b8 00C0      		rjmp .L234
 3169               	.L225:
 3170               	.LM439:
 3171 12ba C801      		movw r24,r16
 3172 12bc 60E0      		ldi r22,lo8(__c.2888)
 3173 12be 70E0      		ldi r23,hi8(__c.2888)
 3174 12c0 0E94 0000 		call strcmp_P
 3175 12c4 892B      		or r24,r25
 3176 12c6 01F4      		brne .L226
 3177               	.LM440:
 3178 12c8 80E0      		ldi r24,lo8(__c.2890)
 3179 12ca 90E0      		ldi r25,hi8(__c.2890)
 3180 12cc 0E94 0000 		call uart_puts_p
 3181               	.LM441:
 3182 12d0 81E0      		ldi r24,lo8(1)
 3183 12d2 90E0      		ldi r25,hi8(1)
 3184 12d4 65E0      		ldi r22,lo8(5)
 3185 12d6 00C0      		rjmp .L234
 3186               	.L226:
 3187               	.LM442:
 3188 12d8 C801      		movw r24,r16
 3189 12da 60E0      		ldi r22,lo8(__c.2892)
 3190 12dc 70E0      		ldi r23,hi8(__c.2892)
 3191 12de 0E94 0000 		call strcmp_P
 3192 12e2 892B      		or r24,r25
 3193 12e4 01F4      		brne .L227
 3194               	.LM443:
 3195 12e6 80E0      		ldi r24,lo8(__c.2894)
 3196 12e8 90E0      		ldi r25,hi8(__c.2894)
 3197 12ea 0E94 0000 		call uart_puts_p
 3198               	.LM444:
 3199 12ee 81E0      		ldi r24,lo8(1)
 3200 12f0 90E0      		ldi r25,hi8(1)
 3201 12f2 62E0      		ldi r22,lo8(2)
 3202 12f4 00C0      		rjmp .L234
 3203               	.L227:
 3204               	.LM445:
 3205 12f6 C801      		movw r24,r16
 3206 12f8 60E0      		ldi r22,lo8(__c.2896)
 3207 12fa 70E0      		ldi r23,hi8(__c.2896)
 3208 12fc 0E94 0000 		call strcmp_P
 3209 1300 892B      		or r24,r25
 3210 1302 01F4      		brne .L228
 3211               	.LM446:
 3212 1304 80E0      		ldi r24,lo8(__c.2898)
 3213 1306 90E0      		ldi r25,hi8(__c.2898)
 3214 1308 0E94 0000 		call uart_puts_p
 3215               	.LM447:
 3216 130c 81E0      		ldi r24,lo8(1)
 3217 130e 90E0      		ldi r25,hi8(1)
 3218 1310 63E0      		ldi r22,lo8(3)
 3219               	.L234:
 3220 1312 0E94 0000 		call EEPROM_write
 3221               	.LM448:
 3222 1316 0E94 0000 		call record_config_file
 3223               	.LM449:
 3224 131a 85E0      		ldi r24,lo8(5)
 3225 131c 0E94 0000 		call blink_error
 3226 1320 00C0      		rjmp .L229
 3227               	.L228:
 3228               	.LM450:
 3229 1322 C801      		movw r24,r16
 3230 1324 60E0      		ldi r22,lo8(__c.2900)
 3231 1326 70E0      		ldi r23,hi8(__c.2900)
 3232 1328 0E94 0000 		call strcmp_P
 3233 132c 892B      		or r24,r25
 3234 132e 01F0      		breq .+2
 3235 1330 00C0      		rjmp .L232
 3236               	.LM451:
 3237 1332 80E0      		ldi r24,lo8(__c.2902)
 3238 1334 90E0      		ldi r25,hi8(__c.2902)
 3239 1336 0E94 0000 		call uart_puts_p
 3240               	.L229:
 3241               	/* epilogue start */
 3242               	.LBE76:
 3243               	.LM452:
 3244 133a 0F90      		pop __tmp_reg__
 3245 133c 0F90      		pop __tmp_reg__
 3246 133e 0F90      		pop __tmp_reg__
 3247 1340 0F90      		pop __tmp_reg__
 3248 1342 0F90      		pop __tmp_reg__
 3249 1344 CF91      		pop r28
 3250 1346 DF91      		pop r29
 3251 1348 1F91      		pop r17
 3252 134a 0F91      		pop r16
 3253 134c FF90      		pop r15
 3254               	.LVL197:
 3255 134e 0895      		ret
 3256               	.LFE28:
 3258               		.data
 3259               	.LC15:
 3260 009d 2D31 0A00 		.string	"-1\n"
 3261               		.text
 3262               	.global	command_shell
 3264               	command_shell:
 3265               	.LFB13:
 3266               	.LM453:
 3267 1350 2F92      		push r2
 3268 1352 3F92      		push r3
 3269 1354 4F92      		push r4
 3270 1356 5F92      		push r5
 3271 1358 6F92      		push r6
 3272 135a 7F92      		push r7
 3273 135c 8F92      		push r8
 3274 135e 9F92      		push r9
 3275 1360 AF92      		push r10
 3276 1362 BF92      		push r11
 3277 1364 CF92      		push r12
 3278 1366 DF92      		push r13
 3279 1368 EF92      		push r14
 3280 136a FF92      		push r15
 3281 136c 0F93      		push r16
 3282 136e 1F93      		push r17
 3283 1370 DF93      		push r29
 3284 1372 CF93      		push r28
 3285 1374 CDB7      		in r28,__SP_L__
 3286 1376 DEB7      		in r29,__SP_H__
 3287 1378 C956      		subi r28,lo8(-(-105))
 3288 137a D040      		sbci r29,hi8(-(-105))
 3289 137c 0FB6      		in __tmp_reg__,__SREG__
 3290 137e F894      		cli
 3291 1380 DEBF      		out __SP_H__,r29
 3292 1382 0FBE      		out __SREG__,__tmp_reg__
 3293 1384 CDBF      		out __SP_L__,r28
 3294               	/* prologue: function */
 3295               	/* frame size = 105 */
 3296               	.LBB153:
 3297               	.LM454:
 3298 1386 9EE0      		ldi r25,lo8(14)
 3299 1388 692E      		mov r6,r25
 3300 138a 712C      		mov r7,__zero_reg__
 3301 138c 6C0E      		add r6,r28
 3302 138e 7D1E      		adc r7,r29
 3303               	.LBB154:
 3304               	.LM455:
 3305 1390 82E6      		ldi r24,lo8(98)
 3306 1392 282E      		mov r2,r24
 3307 1394 312C      		mov r3,__zero_reg__
 3308 1396 2C0E      		add r2,r28
 3309 1398 3D1E      		adc r3,r29
 3310               	.LBE154:
 3311               	.LBB155:
 3312               	.LM456:
 3313 139a 06E0      		ldi r16,lo8(6)
 3314 139c 402E      		mov r4,r16
 3315 139e 512C      		mov r5,__zero_reg__
 3316 13a0 4C0E      		add r4,r28
 3317 13a2 5D1E      		adc r5,r29
 3318               	.LVL198:
 3319               	.L305:
 3320               	.LBE155:
 3321               	.LM457:
 3322 13a4 8EE3      		ldi r24,lo8(62)
 3323 13a6 0E94 0000 		call uart_putc
 3324               	.LVL199:
 3325               	.LM458:
 3326 13aa C301      		movw r24,r6
 3327 13ac 68E1      		ldi r22,lo8(24)
 3328 13ae 0E94 0000 		call read_line
 3329 13b2 8823      		tst r24
 3330 13b4 01F0      		breq .L305
 3331               	.LM459:
 3332 13b6 80E0      		ldi r24,lo8(0)
 3333 13b8 0E94 0000 		call get_cmd_arg
 3334 13bc 8C01      		movw r16,r24
 3335               	.LVL200:
 3336               	.LM460:
 3337 13be 60E0      		ldi r22,lo8(__c.2264)
 3338 13c0 70E0      		ldi r23,hi8(__c.2264)
 3339 13c2 0E94 0000 		call strcmp_P
 3340 13c6 892B      		or r24,r25
 3341 13c8 01F4      		brne .L237
 3342               	.LM461:
 3343 13ca 80E0      		ldi r24,lo8(__c.2266)
 3344 13cc 90E0      		ldi r25,hi8(__c.2266)
 3345 13ce 0E94 0000 		call uart_puts_p
 3346               	.LM462:
 3347 13d2 8091 0000 		lds r24,fs
 3348 13d6 9091 0000 		lds r25,(fs)+1
 3349 13da 0E94 0000 		call fat_close
 3350               	.LM463:
 3351 13de 8091 0000 		lds r24,partition
 3352 13e2 9091 0000 		lds r25,(partition)+1
 3353 13e6 0E94 0000 		call partition_close
 3354               	.LM464:
 3355 13ea 0E94 0000 		call init_media
 3356               	.LM465:
 3357 13ee 80E0      		ldi r24,lo8(__c.2268)
 3358 13f0 90E0      		ldi r25,hi8(__c.2268)
 3359 13f2 00C0      		rjmp .L311
 3360               	.L237:
 3361               	.LM466:
 3362 13f4 C801      		movw r24,r16
 3363 13f6 60E0      		ldi r22,lo8(__c.2270)
 3364 13f8 70E0      		ldi r23,hi8(__c.2270)
 3365 13fa 0E94 0000 		call strcmp_P
 3366 13fe 892B      		or r24,r25
 3367 1400 01F0      		breq .L312
 3368               	.L238:
 3369               	.LM467:
 3370 1402 C801      		movw r24,r16
 3371 1404 60E0      		ldi r22,lo8(__c.2272)
 3372 1406 70E0      		ldi r23,hi8(__c.2272)
 3373 1408 0E94 0000 		call strcmp_P
 3374 140c 892B      		or r24,r25
 3375 140e 01F4      		brne .L239
 3376               	.L312:
 3377               	.LM468:
 3378 1410 0E94 0000 		call print_menu
 3379 1414 00C0      		rjmp .L305
 3380               	.L239:
 3381               	.LM469:
 3382 1416 C801      		movw r24,r16
 3383 1418 60E0      		ldi r22,lo8(__c.2274)
 3384 141a 70E0      		ldi r23,hi8(__c.2274)
 3385 141c 0E94 0000 		call strcmp_P
 3386 1420 892B      		or r24,r25
 3387 1422 01F4      		brne .L240
 3388               	.LM470:
 3389 1424 0E94 0000 		call baud_menu
 3390 1428 00C0      		rjmp .L305
 3391               	.L240:
 3392               	.LM471:
 3393 142a C801      		movw r24,r16
 3394 142c 60E0      		ldi r22,lo8(__c.2276)
 3395 142e 70E0      		ldi r23,hi8(__c.2276)
 3396 1430 0E94 0000 		call strcmp_P
 3397 1434 892B      		or r24,r25
 3398 1436 01F4      		brne .L241
 3399               	.LM472:
 3400 1438 0E94 0000 		call system_menu
 3401 143c 00C0      		rjmp .L305
 3402               	.L241:
 3403               	.LM473:
 3404 143e C801      		movw r24,r16
 3405 1440 60E0      		ldi r22,lo8(__c.2278)
 3406 1442 70E0      		ldi r23,hi8(__c.2278)
 3407 1444 42E0      		ldi r20,lo8(2)
 3408 1446 50E0      		ldi r21,hi8(2)
 3409 1448 0E94 0000 		call strncmp_P
 3410 144c 892B      		or r24,r25
 3411 144e 01F4      		brne .L242
 3412               	.LBB157:
 3413               	.LM474:
 3414 1450 82E0      		ldi r24,lo8(2)
 3415 1452 B301      		movw r22,r6
 3416 1454 0E94 0000 		call too_many_arguments_error
 3417 1458 8823      		tst r24
 3418 145a 01F0      		breq .+2
 3419 145c 00C0      		rjmp .L305
 3420               	.LM475:
 3421 145e 81E0      		ldi r24,lo8(1)
 3422 1460 0E94 0000 		call get_cmd_arg
 3423 1464 7C01      		movw r14,r24
 3424               	.LVL201:
 3425               	.LM476:
 3426 1466 0097      		sbiw r24,0
 3427 1468 01F4      		brne .+2
 3428 146a 00C0      		rjmp .L305
 3429               	.LVL202:
 3430               	.LM477:
 3431 146c 6091 0000 		lds r22,dd
 3432 1470 7091 0000 		lds r23,(dd)+1
 3433 1474 8091 0000 		lds r24,fs
 3434 1478 9091 0000 		lds r25,(fs)+1
 3435               	.LVL203:
 3436 147c A701      		movw r20,r14
 3437 147e 9E01      		movw r18,r28
 3438 1480 215C      		subi r18,lo8(-(63))
 3439 1482 3F4F      		sbci r19,hi8(-(63))
 3440 1484 00E0      		ldi r16,lo8(0)
 3441 1486 0E94 0000 		call find_file_in_dir
 3442 148a 8823      		tst r24
 3443 148c 01F0      		breq .L243
 3444               	.LBB158:
 3445               	.LM478:
 3446 148e 8091 0000 		lds r24,fs
 3447 1492 9091 0000 		lds r25,(fs)+1
 3448 1496 BE01      		movw r22,r28
 3449 1498 615C      		subi r22,lo8(-(63))
 3450 149a 7F4F      		sbci r23,hi8(-(63))
 3451 149c 0E94 0000 		call fat_open_dir
 3452 14a0 8C01      		movw r16,r24
 3453               	.LVL204:
 3454               	.LM479:
 3455 14a2 0097      		sbiw r24,0
 3456 14a4 01F0      		breq .L243
 3457               	.LVL205:
 3458               	.LM480:
 3459 14a6 8091 0000 		lds r24,dd
 3460 14aa 9091 0000 		lds r25,(dd)+1
 3461               	.LVL206:
 3462 14ae 0E94 0000 		call fat_close_dir
 3463               	.LM481:
 3464 14b2 1093 0000 		sts (dd)+1,r17
 3465 14b6 0093 0000 		sts dd,r16
 3466 14ba 00C0      		rjmp .L305
 3467               	.LVL207:
 3468               	.L243:
 3469               	.LBE158:
 3470               	.LM482:
 3471 14bc 80E0      		ldi r24,lo8(__c.2282)
 3472 14be 90E0      		ldi r25,hi8(__c.2282)
 3473               	.LVL208:
 3474 14c0 0E94 0000 		call uart_puts_p
 3475               	.LM483:
 3476 14c4 C701      		movw r24,r14
 3477 14c6 00C0      		rjmp .L313
 3478               	.LVL209:
 3479               	.L242:
 3480               	.LBE157:
 3481               	.LM484:
 3482 14c8 C801      		movw r24,r16
 3483 14ca 60E0      		ldi r22,lo8(__c.2284)
 3484 14cc 70E0      		ldi r23,hi8(__c.2284)
 3485 14ce 0E94 0000 		call strcmp_P
 3486 14d2 892B      		or r24,r25
 3487 14d4 01F0      		breq .+2
 3488 14d6 00C0      		rjmp .L244
 3489               	.LBB159:
 3490               	.LM485:
 3491 14d8 81E0      		ldi r24,lo8(1)
 3492 14da 0E94 0000 		call get_cmd_arg
 3493 14de 6C01      		movw r12,r24
 3494               	.LVL210:
 3495               	.LM486:
 3496 14e0 1FE3      		ldi r17,lo8(63)
 3497 14e2 E12E      		mov r14,r17
 3498 14e4 F12C      		mov r15,__zero_reg__
 3499               	.LVL211:
 3500 14e6 EC0E      		add r14,r28
 3501 14e8 FD1E      		adc r15,r29
 3502               	.LBB160:
 3503               	.LM487:
 3504 14ea B4E2      		ldi r27,lo8(36)
 3505 14ec BB2E      		mov r11,r27
 3506 14ee 00C0      		rjmp .L306
 3507               	.LVL212:
 3508               	.L251:
 3509               	.LBE160:
 3510               	.LM488:
 3511 14f0 C114      		cp r12,__zero_reg__
 3512 14f2 D104      		cpc r13,__zero_reg__
 3513 14f4 01F0      		breq .L246
 3514               	.LM489:
 3515 14f6 C601      		movw r24,r12
 3516 14f8 B701      		movw r22,r14
 3517 14fa 0E94 0000 		call wildcmp
 3518 14fe 8823      		tst r24
 3519 1500 01F0      		breq .L306
 3520               	.L246:
 3521               	.LBB161:
 3522               	.LM490:
 3523 1502 D701      		movw r26,r14
 3524 1504 0D90      		ld __tmp_reg__,X+
 3525 1506 0020      		tst __tmp_reg__
 3526 1508 01F4      		brne .-6
 3527 150a 8D01      		movw r16,r26
 3528 150c 0150      		subi r16,lo8(-(-1))
 3529 150e 1040      		sbci r17,hi8(-(-1))
 3530 1510 0E19      		sub r16,r14
 3531 1512 1F09      		sbc r17,r15
 3532               	.LM491:
 3533 1514 C701      		movw r24,r14
 3534 1516 0E94 0000 		call uart_puts
 3535               	.LM492:
 3536 151a A096      		adiw r28,95-63
 3537 151c 8FAD      		ldd r24,Y+63
 3538 151e A097      		sbiw r28,95-63
 3539 1520 84FD      		sbrc r24,4
 3540 1522 00C0      		rjmp .L247
 3541 1524 80E2      		ldi r24,lo8(32)
 3542 1526 00C0      		rjmp .L248
 3543               	.L247:
 3544 1528 8FE2      		ldi r24,lo8(47)
 3545               	.L248:
 3546               	.LM493:
 3547 152a 1B2D      		mov r17,r11
 3548 152c 101B      		sub r17,r16
 3549               	.LM494:
 3550 152e 0E94 0000 		call uart_putc
 3551 1532 00C0      		rjmp .L249
 3552               	.L250:
 3553               	.LM495:
 3554 1534 80E2      		ldi r24,lo8(32)
 3555 1536 0E94 0000 		call uart_putc
 3556 153a 1150      		subi r17,lo8(-(-1))
 3557               	.L249:
 3558               	.LM496:
 3559 153c 1123      		tst r17
 3560 153e 01F4      		brne .L250
 3561               	.LM497:
 3562 1540 F101      		movw r30,r2
 3563 1542 6081      		ld r22,Z
 3564 1544 7181      		ldd r23,Z+1
 3565 1546 8281      		ldd r24,Z+2
 3566 1548 9381      		ldd r25,Z+3
 3567 154a 0E94 0000 		call uart_putdw_dec
 3568               	.LM498:
 3569 154e 8AE0      		ldi r24,lo8(10)
 3570 1550 0E94 0000 		call uart_putc
 3571               	.L306:
 3572               	.LBE161:
 3573               	.LM499:
 3574 1554 8091 0000 		lds r24,dd
 3575 1558 9091 0000 		lds r25,(dd)+1
 3576 155c B701      		movw r22,r14
 3577 155e 0E94 0000 		call fat_read_dir
 3578 1562 8823      		tst r24
 3579 1564 01F4      		brne .L251
 3580 1566 00C0      		rjmp .L305
 3581               	.LVL213:
 3582               	.L244:
 3583               	.LBE159:
 3584               	.LM500:
 3585 1568 C801      		movw r24,r16
 3586 156a 60E0      		ldi r22,lo8(__c.2294)
 3587 156c 70E0      		ldi r23,hi8(__c.2294)
 3588 156e 43E0      		ldi r20,lo8(3)
 3589 1570 50E0      		ldi r21,hi8(3)
 3590 1572 0E94 0000 		call strncmp_P
 3591 1576 892B      		or r24,r25
 3592 1578 01F0      		breq .+2
 3593 157a 00C0      		rjmp .L252
 3594               	.LBB162:
 3595               	.LM501:
 3596 157c 82E0      		ldi r24,lo8(2)
 3597 157e B301      		movw r22,r6
 3598 1580 0E94 0000 		call too_many_arguments_error
 3599 1584 8823      		tst r24
 3600 1586 01F0      		breq .+2
 3601 1588 00C0      		rjmp .L305
 3602               	.LM502:
 3603 158a 81E0      		ldi r24,lo8(1)
 3604 158c 0E94 0000 		call get_cmd_arg
 3605 1590 8C01      		movw r16,r24
 3606               	.LVL214:
 3607               	.LM503:
 3608 1592 0097      		sbiw r24,0
 3609 1594 01F4      		brne .+2
 3610 1596 00C0      		rjmp .L305
 3611               	.LVL215:
 3612               	.LM504:
 3613 1598 6091 0000 		lds r22,dd
 3614 159c 7091 0000 		lds r23,(dd)+1
 3615 15a0 8091 0000 		lds r24,fs
 3616 15a4 9091 0000 		lds r25,(fs)+1
 3617               	.LVL216:
 3618 15a8 A801      		movw r20,r16
 3619 15aa 0E94 0000 		call open_file_in_dir
 3620 15ae 5C01      		movw r10,r24
 3621               	.LM505:
 3622 15b0 0097      		sbiw r24,0
 3623 15b2 01F0      		breq .L253
 3624               	.LVL217:
 3625 15b4 CC24      		clr r12
 3626 15b6 DD24      		clr r13
 3627 15b8 7601      		movw r14,r12
 3628               	.LVL218:
 3629 15ba 00C0      		rjmp .L254
 3630               	.LVL219:
 3631               	.L253:
 3632               	.LM506:
 3633 15bc 80E0      		ldi r24,lo8(__c.2297)
 3634 15be 90E0      		ldi r25,hi8(__c.2297)
 3635               	.LVL220:
 3636 15c0 00C0      		rjmp .L310
 3637               	.LVL221:
 3638               	.L256:
 3639               	.LM507:
 3640 15c2 C701      		movw r24,r14
 3641 15c4 B601      		movw r22,r12
 3642 15c6 0E94 0000 		call uart_putdw_hex
 3643               	.LVL222:
 3644               	.LM508:
 3645 15ca 8AE3      		ldi r24,lo8(58)
 3646 15cc 0E94 0000 		call uart_putc
 3647 15d0 8201      		movw r16,r4
 3648               	.LVL223:
 3649               	.L255:
 3650               	.LBB156:
 3651               	.LM509:
 3652 15d2 80E2      		ldi r24,lo8(32)
 3653 15d4 0E94 0000 		call uart_putc
 3654               	.LM510:
 3655 15d8 D801      		movw r26,r16
 3656 15da 8D91      		ld r24,X+
 3657 15dc 8D01      		movw r16,r26
 3658 15de 0E94 0000 		call uart_putc_hex
 3659               	.LM511:
 3660 15e2 802F      		mov r24,r16
 3661 15e4 8419      		sub r24,r4
 3662 15e6 8915      		cp r24,r9
 3663 15e8 00F0      		brlo .L255
 3664               	.LBE156:
 3665               	.LM512:
 3666 15ea 8AE0      		ldi r24,lo8(10)
 3667 15ec 0E94 0000 		call uart_putc
 3668               	.LM513:
 3669 15f0 88E0      		ldi r24,lo8(8)
 3670 15f2 90E0      		ldi r25,hi8(8)
 3671 15f4 A0E0      		ldi r26,hlo8(8)
 3672 15f6 B0E0      		ldi r27,hhi8(8)
 3673 15f8 C80E      		add r12,r24
 3674 15fa D91E      		adc r13,r25
 3675 15fc EA1E      		adc r14,r26
 3676 15fe FB1E      		adc r15,r27
 3677               	.LVL224:
 3678               	.L254:
 3679               	.LM514:
 3680 1600 C501      		movw r24,r10
 3681 1602 B201      		movw r22,r4
 3682 1604 48E0      		ldi r20,lo8(8)
 3683 1606 50E0      		ldi r21,hi8(8)
 3684 1608 0E94 0000 		call fat_read_file
 3685 160c 982E      		mov r9,r24
 3686 160e 8823      		tst r24
 3687 1610 01F4      		brne .L256
 3688               	.LVL225:
 3689               	.LM515:
 3690 1612 C501      		movw r24,r10
 3691               	.LVL226:
 3692 1614 00C0      		rjmp .L314
 3693               	.LVL227:
 3694               	.L252:
 3695               	.LBE162:
 3696               	.LM516:
 3697 1616 C801      		movw r24,r16
 3698 1618 60E0      		ldi r22,lo8(__c.2309)
 3699 161a 70E0      		ldi r23,hi8(__c.2309)
 3700 161c 44E0      		ldi r20,lo8(4)
 3701 161e 50E0      		ldi r21,hi8(4)
 3702 1620 0E94 0000 		call strncmp_P
 3703 1624 892B      		or r24,r25
 3704 1626 01F0      		breq .+2
 3705 1628 00C0      		rjmp .L257
 3706               	.LBB163:
 3707               	.LM517:
 3708 162a 81E0      		ldi r24,lo8(1)
 3709 162c 0E94 0000 		call get_cmd_arg
 3710 1630 8C01      		movw r16,r24
 3711               	.LVL228:
 3712               	.LM518:
 3713 1632 0097      		sbiw r24,0
 3714 1634 01F4      		brne .+2
 3715 1636 00C0      		rjmp .L305
 3716               	.LVL229:
 3717               	.LM519:
 3718 1638 6091 0000 		lds r22,dd
 3719 163c 7091 0000 		lds r23,(dd)+1
 3720 1640 8091 0000 		lds r24,fs
 3721 1644 9091 0000 		lds r25,(fs)+1
 3722               	.LVL230:
 3723 1648 A801      		movw r20,r16
 3724 164a 0E94 0000 		call open_file_in_dir
 3725 164e 4C01      		movw r8,r24
 3726               	.LM520:
 3727 1650 0097      		sbiw r24,0
 3728 1652 01F4      		brne .L258
 3729               	.LVL231:
 3730               	.LM521:
 3731 1654 80E0      		ldi r24,lo8(__c.2312)
 3732 1656 90E0      		ldi r25,hi8(__c.2312)
 3733               	.LVL232:
 3734 1658 00C0      		rjmp .L310
 3735               	.LVL233:
 3736               	.L258:
 3737               	.LM522:
 3738 165a 82E0      		ldi r24,lo8(2)
 3739               	.LVL234:
 3740 165c 0E94 0000 		call get_cmd_arg
 3741 1660 AC01      		movw r20,r24
 3742               	.LVL235:
 3743 1662 0097      		sbiw r24,0
 3744 1664 01F4      		brne .+2
 3745 1666 00C0      		rjmp .L259
 3746               	.LVL236:
 3747               	.LM523:
 3748 1668 FC01      		movw r30,r24
 3749 166a 0190      		ld __tmp_reg__,Z+
 3750 166c 0020      		tst __tmp_reg__
 3751 166e 01F4      		brne .-6
 3752 1670 3197      		sbiw r30,1
 3753 1672 E81B      		sub r30,r24
 3754 1674 20E0      		ldi r18,lo8(0)
 3755 1676 30E0      		ldi r19,hi8(0)
 3756               	.LVL237:
 3757               	.LBB164:
 3758               	.LBB165:
 3759               	.LBB166:
 3760               	.LM524:
 3761 1678 6E2F      		mov r22,r30
 3762 167a 70E0      		ldi r23,lo8(0)
 3763 167c 00C0      		rjmp .L260
 3764               	.LVL238:
 3765               	.L261:
 3766               	.LM525:
 3767 167e FA01      		movw r30,r20
 3768 1680 E20F      		add r30,r18
 3769 1682 F31F      		adc r31,r19
 3770 1684 8081      		ld r24,Z
 3771 1686 90E0      		ldi r25,lo8(0)
 3772 1688 C097      		sbiw r24,48
 3773 168a 0A97      		sbiw r24,10
 3774 168c 00F0      		brlo .+2
 3775 168e 00C0      		rjmp .L259
 3776               	.LM526:
 3777 1690 2F5F      		subi r18,lo8(-(1))
 3778 1692 3F4F      		sbci r19,hi8(-(1))
 3779               	.LVL239:
 3780               	.L260:
 3781 1694 2617      		cp r18,r22
 3782 1696 3707      		cpc r19,r23
 3783 1698 04F0      		brlt .L261
 3784 169a 8A01      		movw r16,r20
 3785               	.LVL240:
 3786 169c 20E0      		ldi r18,lo8(0)
 3787 169e 30E0      		ldi r19,hi8(0)
 3788 16a0 40E0      		ldi r20,hlo8(0)
 3789 16a2 50E0      		ldi r21,hhi8(0)
 3790               	.LVL241:
 3791 16a4 00C0      		rjmp .L262
 3792               	.LVL242:
 3793               	.L263:
 3794               	.LBE166:
 3795               	.LBE165:
 3796               	.LBE164:
 3797               	.LBB167:
 3798               	.LBB168:
 3799               	.LBB169:
 3800               	.LM527:
 3801 16a6 CA01      		movw r24,r20
 3802 16a8 B901      		movw r22,r18
 3803 16aa 2AE0      		ldi r18,lo8(10)
 3804 16ac 30E0      		ldi r19,hi8(10)
 3805 16ae 40E0      		ldi r20,hlo8(10)
 3806 16b0 50E0      		ldi r21,hhi8(10)
 3807               	.LVL243:
 3808 16b2 0E94 0000 		call __mulsi3
 3809 16b6 9B01      		movw r18,r22
 3810 16b8 AC01      		movw r20,r24
 3811               	.LVL244:
 3812 16ba 8F2D      		mov r24,r15
 3813 16bc 90E0      		ldi r25,lo8(0)
 3814 16be C097      		sbiw r24,48
 3815 16c0 AA27      		clr r26
 3816 16c2 97FD      		sbrc r25,7
 3817 16c4 A095      		com r26
 3818 16c6 BA2F      		mov r27,r26
 3819 16c8 280F      		add r18,r24
 3820 16ca 391F      		adc r19,r25
 3821 16cc 4A1F      		adc r20,r26
 3822 16ce 5B1F      		adc r21,r27
 3823 16d0 0F5F      		subi r16,lo8(-(1))
 3824 16d2 1F4F      		sbci r17,hi8(-(1))
 3825               	.LVL245:
 3826               	.L262:
 3827               	.LM528:
 3828 16d4 D801      		movw r26,r16
 3829 16d6 FC90      		ld r15,X
 3830 16d8 8F2D      		mov r24,r15
 3831 16da 8053      		subi r24,lo8(-(-48))
 3832 16dc 8A30      		cpi r24,lo8(10)
 3833 16de 00F0      		brlo .L263
 3834               	.LBE169:
 3835               	.LBE168:
 3836               	.LM529:
 3837 16e0 2A83      		std Y+2,r18
 3838 16e2 3B83      		std Y+3,r19
 3839 16e4 4C83      		std Y+4,r20
 3840 16e6 5D83      		std Y+5,r21
 3841               	.LVL246:
 3842               	.LM530:
 3843 16e8 C401      		movw r24,r8
 3844 16ea BE01      		movw r22,r28
 3845 16ec 6E5F      		subi r22,lo8(-(2))
 3846 16ee 7F4F      		sbci r23,hi8(-(2))
 3847 16f0 40E0      		ldi r20,lo8(0)
 3848               	.LVL247:
 3849 16f2 0E94 0000 		call fat_seek_file
 3850               	.LVL248:
 3851 16f6 8823      		tst r24
 3852 16f8 01F4      		brne .L259
 3853               	.LM531:
 3854 16fa 80E0      		ldi r24,lo8(__c.2315)
 3855 16fc 90E0      		ldi r25,hi8(__c.2315)
 3856 16fe 0E94 0000 		call uart_puts_p
 3857               	.LM532:
 3858 1702 C301      		movw r24,r6
 3859 1704 0E94 0000 		call uart_puts
 3860               	.L316:
 3861               	.LM533:
 3862 1708 8AE0      		ldi r24,lo8(10)
 3863 170a 0E94 0000 		call uart_putc
 3864               	.LM534:
 3865 170e C401      		movw r24,r8
 3866               	.LVL249:
 3867               	.L314:
 3868 1710 0E94 0000 		call fat_close_file
 3869 1714 00C0      		rjmp .L305
 3870               	.LVL250:
 3871               	.L259:
 3872               	.LBE167:
 3873               	.LM535:
 3874 1716 83E0      		ldi r24,lo8(3)
 3875 1718 0E94 0000 		call get_cmd_arg
 3876               	.LVL251:
 3877 171c AC01      		movw r20,r24
 3878               	.LVL252:
 3879 171e 0097      		sbiw r24,0
 3880 1720 01F0      		breq .L264
 3881               	.LVL253:
 3882               	.LM536:
 3883 1722 FC01      		movw r30,r24
 3884 1724 0190      		ld __tmp_reg__,Z+
 3885 1726 0020      		tst __tmp_reg__
 3886 1728 01F4      		brne .-6
 3887 172a 3197      		sbiw r30,1
 3888 172c E81B      		sub r30,r24
 3889 172e 20E0      		ldi r18,lo8(0)
 3890 1730 30E0      		ldi r19,hi8(0)
 3891               	.LVL254:
 3892               	.LBB170:
 3893               	.LBB171:
 3894               	.LBB172:
 3895               	.LM537:
 3896 1732 6E2F      		mov r22,r30
 3897 1734 70E0      		ldi r23,lo8(0)
 3898 1736 00C0      		rjmp .L265
 3899               	.LVL255:
 3900               	.L266:
 3901               	.LM538:
 3902 1738 FA01      		movw r30,r20
 3903 173a E20F      		add r30,r18
 3904 173c F31F      		adc r31,r19
 3905 173e 8081      		ld r24,Z
 3906 1740 90E0      		ldi r25,lo8(0)
 3907 1742 C097      		sbiw r24,48
 3908 1744 0A97      		sbiw r24,10
 3909 1746 00F4      		brsh .L264
 3910               	.LM539:
 3911 1748 2F5F      		subi r18,lo8(-(1))
 3912 174a 3F4F      		sbci r19,hi8(-(1))
 3913               	.LVL256:
 3914               	.L265:
 3915 174c 2617      		cp r18,r22
 3916 174e 3707      		cpc r19,r23
 3917 1750 04F0      		brlt .L266
 3918 1752 6A01      		movw r12,r20
 3919               	.LVL257:
 3920 1754 EE24      		clr r14
 3921 1756 FF24      		clr r15
 3922 1758 8701      		movw r16,r14
 3923               	.LVL258:
 3924 175a 00C0      		rjmp .L267
 3925               	.LVL259:
 3926               	.L268:
 3927               	.LBE172:
 3928               	.LBE171:
 3929               	.LBE170:
 3930               	.LBB173:
 3931               	.LBB174:
 3932               	.LM540:
 3933 175c C801      		movw r24,r16
 3934 175e B701      		movw r22,r14
 3935 1760 2AE0      		ldi r18,lo8(10)
 3936 1762 30E0      		ldi r19,hi8(10)
 3937 1764 40E0      		ldi r20,hlo8(10)
 3938 1766 50E0      		ldi r21,hhi8(10)
 3939               	.LVL260:
 3940 1768 0E94 0000 		call __mulsi3
 3941 176c 7B01      		movw r14,r22
 3942 176e 8C01      		movw r16,r24
 3943 1770 8B2D      		mov r24,r11
 3944 1772 90E0      		ldi r25,lo8(0)
 3945 1774 C097      		sbiw r24,48
 3946 1776 AA27      		clr r26
 3947 1778 97FD      		sbrc r25,7
 3948 177a A095      		com r26
 3949 177c BA2F      		mov r27,r26
 3950 177e E80E      		add r14,r24
 3951 1780 F91E      		adc r15,r25
 3952 1782 0A1F      		adc r16,r26
 3953 1784 1B1F      		adc r17,r27
 3954 1786 0894      		sec
 3955 1788 C11C      		adc r12,__zero_reg__
 3956 178a D11C      		adc r13,__zero_reg__
 3957               	.LVL261:
 3958               	.L267:
 3959               	.LM541:
 3960 178c F601      		movw r30,r12
 3961 178e B080      		ld r11,Z
 3962 1790 8B2D      		mov r24,r11
 3963 1792 8053      		subi r24,lo8(-(-48))
 3964 1794 8A30      		cpi r24,lo8(10)
 3965 1796 00F0      		brlo .L268
 3966 1798 00C0      		rjmp .L308
 3967               	.LVL262:
 3968               	.L264:
 3969 179a EE24      		clr r14
 3970 179c EA94      		dec r14
 3971 179e FE2C      		mov r15,r14
 3972 17a0 8701      		movw r16,r14
 3973               	.LVL263:
 3974 17a2 00C0      		rjmp .L308
 3975               	.LVL264:
 3976               	.L274:
 3977               	.LBE174:
 3978               	.LBE173:
 3979               	.LM542:
 3980 17a4 9981      		ldd r25,Y+1
 3981 17a6 892F      		mov r24,r25
 3982 17a8 8052      		subi r24,lo8(-(-32))
 3983 17aa 8F35      		cpi r24,lo8(95)
 3984 17ac 00F4      		brsh .L270
 3985               	.LM543:
 3986 17ae 892F      		mov r24,r25
 3987 17b0 00C0      		rjmp .L317
 3988               	.L270:
 3989               	.LM544:
 3990 17b2 9A30      		cpi r25,lo8(10)
 3991 17b4 01F4      		brne .L272
 3992               	.LM545:
 3993 17b6 8AE0      		ldi r24,lo8(10)
 3994 17b8 00C0      		rjmp .L317
 3995               	.L272:
 3996               	.LM546:
 3997 17ba 8EE2      		ldi r24,lo8(46)
 3998               	.L317:
 3999 17bc 0E94 0000 		call uart_putc
 4000               	.LM547:
 4001 17c0 0894      		sec
 4002 17c2 E108      		sbc r14,__zero_reg__
 4003 17c4 F108      		sbc r15,__zero_reg__
 4004 17c6 0109      		sbc r16,__zero_reg__
 4005 17c8 1109      		sbc r17,__zero_reg__
 4006               	.LVL265:
 4007               	.L308:
 4008               	.LM548:
 4009 17ca C401      		movw r24,r8
 4010 17cc BE01      		movw r22,r28
 4011 17ce 6F5F      		subi r22,lo8(-(1))
 4012 17d0 7F4F      		sbci r23,hi8(-(1))
 4013 17d2 41E0      		ldi r20,lo8(1)
 4014 17d4 50E0      		ldi r21,hi8(1)
 4015               	.LVL266:
 4016 17d6 0E94 0000 		call fat_read_file
 4017               	.LVL267:
 4018 17da 1816      		cp __zero_reg__,r24
 4019 17dc 1906      		cpc __zero_reg__,r25
 4020 17de 04F0      		brlt .+2
 4021 17e0 00C0      		rjmp .L316
 4022 17e2 E114      		cp r14,__zero_reg__
 4023 17e4 F104      		cpc r15,__zero_reg__
 4024 17e6 0105      		cpc r16,__zero_reg__
 4025 17e8 1105      		cpc r17,__zero_reg__
 4026 17ea 01F4      		brne .L274
 4027 17ec 00C0      		rjmp .L316
 4028               	.LVL268:
 4029               	.L257:
 4030               	.LBE163:
 4031               	.LM549:
 4032 17ee C801      		movw r24,r16
 4033 17f0 60E0      		ldi r22,lo8(__c.2322)
 4034 17f2 70E0      		ldi r23,hi8(__c.2322)
 4035 17f4 0E94 0000 		call strcmp_P
 4036 17f8 892B      		or r24,r25
 4037 17fa 01F0      		breq .+2
 4038 17fc 00C0      		rjmp .L275
 4039               	.LM550:
 4040 17fe 0091 0000 		lds r16,fs
 4041 1802 1091 0000 		lds r17,(fs)+1
 4042               	.LVL269:
 4043               	.LBB175:
 4044               	.LBB176:
 4045               	.LM551:
 4046 1806 0115      		cp r16,__zero_reg__
 4047 1808 1105      		cpc r17,__zero_reg__
 4048 180a 01F4      		brne .+2
 4049 180c 00C0      		rjmp .L276
 4050               	.LBE176:
 4051               	.LM552:
 4052 180e CE01      		movw r24,r28
 4053 1810 8696      		adiw r24,38
 4054 1812 0E94 0000 		call sd_raw_get_info
 4055               	.LBB177:
 4056 1816 8823      		tst r24
 4057 1818 01F4      		brne .+2
 4058 181a 00C0      		rjmp .L276
 4059               	.LBE177:
 4060               	.LM553:
 4061 181c 80E0      		ldi r24,lo8(__c.2749)
 4062 181e 90E0      		ldi r25,hi8(__c.2749)
 4063 1820 0E94 0000 		call uart_puts_p
 4064               	.LBB178:
 4065 1824 8EA1      		ldd r24,Y+38
 4066 1826 0E94 0000 		call uart_putc_hex
 4067 182a 8AE0      		ldi r24,lo8(10)
 4068 182c 0E94 0000 		call uart_putc
 4069               	.LBE178:
 4070               	.LM554:
 4071 1830 80E0      		ldi r24,lo8(__c.2751)
 4072 1832 90E0      		ldi r25,hi8(__c.2751)
 4073 1834 0E94 0000 		call uart_puts_p
 4074               	.LBB179:
 4075 1838 CE01      		movw r24,r28
 4076 183a 8796      		adiw r24,39
 4077 183c 0E94 0000 		call uart_puts
 4078 1840 8AE0      		ldi r24,lo8(10)
 4079 1842 0E94 0000 		call uart_putc
 4080               	.LBE179:
 4081               	.LM555:
 4082 1846 80E0      		ldi r24,lo8(__c.2753)
 4083 1848 90E0      		ldi r25,hi8(__c.2753)
 4084 184a 0E94 0000 		call uart_puts_p
 4085               	.LBB180:
 4086 184e CE01      		movw r24,r28
 4087 1850 8A96      		adiw r24,42
 4088 1852 0E94 0000 		call uart_puts
 4089 1856 8AE0      		ldi r24,lo8(10)
 4090 1858 0E94 0000 		call uart_putc
 4091               	.LBE180:
 4092               	.LM556:
 4093 185c 80E0      		ldi r24,lo8(__c.2755)
 4094 185e 90E0      		ldi r25,hi8(__c.2755)
 4095 1860 0E94 0000 		call uart_puts_p
 4096               	.LBB181:
 4097 1864 88A9      		ldd r24,Y+48
 4098 1866 0E94 0000 		call uart_putc_hex
 4099 186a 8AE0      		ldi r24,lo8(10)
 4100 186c 0E94 0000 		call uart_putc
 4101               	.LBE181:
 4102               	.LM557:
 4103 1870 80E0      		ldi r24,lo8(__c.2757)
 4104 1872 90E0      		ldi r25,hi8(__c.2757)
 4105 1874 0E94 0000 		call uart_puts_p
 4106               	.LBB182:
 4107 1878 69A9      		ldd r22,Y+49
 4108 187a 7AA9      		ldd r23,Y+50
 4109 187c 8BA9      		ldd r24,Y+51
 4110 187e 9CA9      		ldd r25,Y+52
 4111 1880 0E94 0000 		call uart_putdw_hex
 4112 1884 8AE0      		ldi r24,lo8(10)
 4113 1886 0E94 0000 		call uart_putc
 4114               	.LBE182:
 4115               	.LM558:
 4116 188a 80E0      		ldi r24,lo8(__c.2759)
 4117 188c 90E0      		ldi r25,hi8(__c.2759)
 4118 188e 0E94 0000 		call uart_puts_p
 4119               	.LBB183:
 4120 1892 8EA9      		ldd r24,Y+54
 4121 1894 90E0      		ldi r25,lo8(0)
 4122 1896 0E94 0000 		call uart_putw_dec
 4123 189a 8FE2      		ldi r24,lo8(47)
 4124 189c 0E94 0000 		call uart_putc
 4125               	.LM559:
 4126 18a0 8DA9      		ldd r24,Y+53
 4127 18a2 90E0      		ldi r25,lo8(0)
 4128 18a4 0E94 0000 		call uart_putw_dec
 4129 18a8 8AE0      		ldi r24,lo8(10)
 4130 18aa 0E94 0000 		call uart_putc
 4131               	.LBE183:
 4132               	.LM560:
 4133 18ae 80E0      		ldi r24,lo8(__c.2761)
 4134 18b0 90E0      		ldi r25,hi8(__c.2761)
 4135 18b2 0E94 0000 		call uart_puts_p
 4136               	.LBB184:
 4137 18b6 6FA9      		ldd r22,Y+55
 4138 18b8 78AD      		ldd r23,Y+56
 4139 18ba 89AD      		ldd r24,Y+57
 4140 18bc 9AAD      		ldd r25,Y+58
 4141 18be A4E1      		ldi r26,20
 4142 18c0 9695      	1:	lsr r25
 4143 18c2 8795      		ror r24
 4144 18c4 7795      		ror r23
 4145 18c6 6795      		ror r22
 4146 18c8 AA95      		dec r26
 4147 18ca 01F4      		brne 1b
 4148 18cc 0E94 0000 		call uart_putdw_dec
 4149               	.LBE184:
 4150 18d0 80E0      		ldi r24,lo8(__c.2763)
 4151 18d2 90E0      		ldi r25,hi8(__c.2763)
 4152 18d4 0E94 0000 		call uart_puts_p
 4153               	.LM561:
 4154 18d8 80E0      		ldi r24,lo8(__c.2765)
 4155 18da 90E0      		ldi r25,hi8(__c.2765)
 4156 18dc 0E94 0000 		call uart_puts_p
 4157               	.LBB185:
 4158 18e0 8BAD      		ldd r24,Y+59
 4159 18e2 90E0      		ldi r25,lo8(0)
 4160 18e4 0E94 0000 		call uart_putw_dec
 4161 18e8 8AE0      		ldi r24,lo8(10)
 4162 18ea 0E94 0000 		call uart_putc
 4163               	.LBE185:
 4164               	.LM562:
 4165 18ee 80E0      		ldi r24,lo8(__c.2767)
 4166 18f0 90E0      		ldi r25,hi8(__c.2767)
 4167 18f2 0E94 0000 		call uart_puts_p
 4168               	.LBB186:
 4169 18f6 8DAD      		ldd r24,Y+61
 4170 18f8 90E0      		ldi r25,lo8(0)
 4171 18fa 0E94 0000 		call uart_putw_dec
 4172 18fe 8FE2      		ldi r24,lo8(47)
 4173 1900 0E94 0000 		call uart_putc
 4174               	.LM563:
 4175 1904 8CAD      		ldd r24,Y+60
 4176 1906 90E0      		ldi r25,lo8(0)
 4177 1908 0E94 0000 		call uart_putw_dec
 4178 190c 8AE0      		ldi r24,lo8(10)
 4179 190e 0E94 0000 		call uart_putc
 4180               	.LBE186:
 4181               	.LM564:
 4182 1912 80E0      		ldi r24,lo8(__c.2769)
 4183 1914 90E0      		ldi r25,hi8(__c.2769)
 4184 1916 0E94 0000 		call uart_puts_p
 4185               	.LBB187:
 4186 191a 8EAD      		ldd r24,Y+62
 4187 191c 90E0      		ldi r25,lo8(0)
 4188 191e 0E94 0000 		call uart_putw_dec
 4189 1922 8AE0      		ldi r24,lo8(10)
 4190 1924 0E94 0000 		call uart_putc
 4191               	.LBE187:
 4192               	.LM565:
 4193 1928 80E0      		ldi r24,lo8(__c.2771)
 4194 192a 90E0      		ldi r25,hi8(__c.2771)
 4195 192c 0E94 0000 		call uart_puts_p
 4196 1930 C801      		movw r24,r16
 4197 1932 0E94 0000 		call fat_get_fs_free
 4198               	.LBB188:
 4199 1936 0E94 0000 		call uart_putdw_dec
 4200 193a 8FE2      		ldi r24,lo8(47)
 4201 193c 0E94 0000 		call uart_putc
 4202               	.LBE188:
 4203               	.LM566:
 4204 1940 C801      		movw r24,r16
 4205 1942 0E94 0000 		call fat_get_fs_size
 4206 1946 00C0      		rjmp .L318
 4207               	.L276:
 4208               	.LBE175:
 4209               	.LM567:
 4210 1948 80E0      		ldi r24,lo8(__c.2324)
 4211 194a 90E0      		ldi r25,hi8(__c.2324)
 4212 194c 00C0      		rjmp .L311
 4213               	.LVL270:
 4214               	.L275:
 4215               	.LM568:
 4216 194e C801      		movw r24,r16
 4217 1950 60E0      		ldi r22,lo8(__c.2326)
 4218 1952 70E0      		ldi r23,hi8(__c.2326)
 4219 1954 44E0      		ldi r20,lo8(4)
 4220 1956 50E0      		ldi r21,hi8(4)
 4221 1958 0E94 0000 		call strncmp_P
 4222 195c 892B      		or r24,r25
 4223 195e 01F4      		brne .L277
 4224               	.LBB189:
 4225               	.LM569:
 4226 1960 82E0      		ldi r24,lo8(2)
 4227 1962 B301      		movw r22,r6
 4228 1964 0E94 0000 		call too_many_arguments_error
 4229 1968 8823      		tst r24
 4230 196a 01F0      		breq .+2
 4231 196c 00C0      		rjmp .L305
 4232               	.LM570:
 4233 196e 81E0      		ldi r24,lo8(1)
 4234 1970 0E94 0000 		call get_cmd_arg
 4235 1974 AC01      		movw r20,r24
 4236               	.LVL271:
 4237               	.LM571:
 4238 1976 0097      		sbiw r24,0
 4239 1978 01F4      		brne .+2
 4240 197a 00C0      		rjmp .L305
 4241               	.LVL272:
 4242               	.LM572:
 4243 197c 6091 0000 		lds r22,dd
 4244 1980 7091 0000 		lds r23,(dd)+1
 4245 1984 8091 0000 		lds r24,fs
 4246 1988 9091 0000 		lds r25,(fs)+1
 4247               	.LVL273:
 4248 198c 9E01      		movw r18,r28
 4249 198e 215C      		subi r18,lo8(-(63))
 4250 1990 3F4F      		sbci r19,hi8(-(63))
 4251 1992 00E0      		ldi r16,lo8(0)
 4252 1994 0E94 0000 		call find_file_in_dir
 4253               	.LVL274:
 4254 1998 8823      		tst r24
 4255 199a 01F0      		breq .L278
 4256               	.LM573:
 4257 199c D101      		movw r26,r2
 4258 199e 6D91      		ld r22,X+
 4259 19a0 7D91      		ld r23,X+
 4260 19a2 8D91      		ld r24,X+
 4261 19a4 9C91      		ld r25,X
 4262               	.L318:
 4263 19a6 0E94 0000 		call uart_putdw_dec
 4264 19aa 00C0      		rjmp .L315
 4265               	.L278:
 4266               	.LM574:
 4267 19ac 80E0      		ldi r24,lo8(.LC15)
 4268 19ae 90E0      		ldi r25,hi8(.LC15)
 4269 19b0 0E94 0000 		call uart_puts
 4270 19b4 00C0      		rjmp .L305
 4271               	.LVL275:
 4272               	.L277:
 4273               	.LBE189:
 4274               	.LM575:
 4275 19b6 C801      		movw r24,r16
 4276 19b8 60E0      		ldi r22,lo8(__c.2329)
 4277 19ba 70E0      		ldi r23,hi8(__c.2329)
 4278 19bc 42E0      		ldi r20,lo8(2)
 4279 19be 50E0      		ldi r21,hi8(2)
 4280 19c0 0E94 0000 		call strncmp_P
 4281 19c4 892B      		or r24,r25
 4282 19c6 01F4      		brne .L279
 4283               	.LBB190:
 4284               	.LM576:
 4285 19c8 83E0      		ldi r24,lo8(3)
 4286 19ca B301      		movw r22,r6
 4287 19cc 0E94 0000 		call too_many_arguments_error
 4288 19d0 8823      		tst r24
 4289 19d2 01F0      		breq .+2
 4290 19d4 00C0      		rjmp .L305
 4291               	.LM577:
 4292 19d6 81E0      		ldi r24,lo8(1)
 4293 19d8 0E94 0000 		call get_cmd_arg
 4294 19dc 7C01      		movw r14,r24
 4295               	.LVL276:
 4296               	.LM578:
 4297 19de 0097      		sbiw r24,0
 4298 19e0 01F4      		brne .L309
 4299               	.LVL277:
 4300 19e2 00C0      		rjmp .L305
 4301               	.LVL278:
 4302               	.L281:
 4303               	.LM579:
 4304 19e4 8091 0000 		lds r24,fs
 4305 19e8 9091 0000 		lds r25,(fs)+1
 4306 19ec B601      		movw r22,r12
 4307 19ee 0E94 0000 		call fat_delete_file
 4308 19f2 8823      		tst r24
 4309 19f4 01F4      		brne .L307
 4310               	.LM580:
 4311 19f6 80E0      		ldi r24,lo8(__c.2332)
 4312 19f8 90E0      		ldi r25,hi8(__c.2332)
 4313 19fa 0E94 0000 		call uart_puts_p
 4314               	.LM581:
 4315 19fe C301      		movw r24,r6
 4316 1a00 0E94 0000 		call uart_puts
 4317               	.LM582:
 4318 1a04 8AE0      		ldi r24,lo8(10)
 4319 1a06 0E94 0000 		call uart_putc
 4320 1a0a 00C0      		rjmp .L307
 4321               	.LVL279:
 4322               	.L309:
 4323               	.LM583:
 4324 1a0c FFE3      		ldi r31,lo8(63)
 4325 1a0e CF2E      		mov r12,r31
 4326 1a10 D12C      		mov r13,__zero_reg__
 4327               	.LVL280:
 4328 1a12 CC0E      		add r12,r28
 4329 1a14 DD1E      		adc r13,r29
 4330               	.LVL281:
 4331               	.L307:
 4332 1a16 6091 0000 		lds r22,dd
 4333 1a1a 7091 0000 		lds r23,(dd)+1
 4334 1a1e 8091 0000 		lds r24,fs
 4335 1a22 9091 0000 		lds r25,(fs)+1
 4336 1a26 A701      		movw r20,r14
 4337 1a28 9601      		movw r18,r12
 4338 1a2a 01E0      		ldi r16,lo8(1)
 4339 1a2c 0E94 0000 		call find_file_in_dir
 4340 1a30 8823      		tst r24
 4341 1a32 01F4      		brne .L281
 4342 1a34 00C0      		rjmp .L305
 4343               	.LVL282:
 4344               	.L279:
 4345               	.LBE190:
 4346               	.LM584:
 4347 1a36 C801      		movw r24,r16
 4348 1a38 60E0      		ldi r22,lo8(__c.2337)
 4349 1a3a 70E0      		ldi r23,hi8(__c.2337)
 4350 1a3c 43E0      		ldi r20,lo8(3)
 4351 1a3e 50E0      		ldi r21,hi8(3)
 4352 1a40 0E94 0000 		call strncmp_P
 4353 1a44 892B      		or r24,r25
 4354 1a46 01F4      		brne .L282
 4355               	.LBB191:
 4356               	.LM585:
 4357 1a48 82E0      		ldi r24,lo8(2)
 4358 1a4a B301      		movw r22,r6
 4359 1a4c 0E94 0000 		call too_many_arguments_error
 4360 1a50 8823      		tst r24
 4361 1a52 01F0      		breq .+2
 4362 1a54 00C0      		rjmp .L305
 4363               	.LM586:
 4364 1a56 81E0      		ldi r24,lo8(1)
 4365 1a58 0E94 0000 		call get_cmd_arg
 4366 1a5c BC01      		movw r22,r24
 4367               	.LVL283:
 4368               	.LM587:
 4369 1a5e 0097      		sbiw r24,0
 4370 1a60 01F4      		brne .+2
 4371 1a62 00C0      		rjmp .L305
 4372               	.LVL284:
 4373               	.LM588:
 4374 1a64 8091 0000 		lds r24,dd
 4375 1a68 9091 0000 		lds r25,(dd)+1
 4376               	.LVL285:
 4377 1a6c AE01      		movw r20,r28
 4378 1a6e 415C      		subi r20,lo8(-(63))
 4379 1a70 5F4F      		sbci r21,hi8(-(63))
 4380 1a72 0E94 0000 		call fat_create_file
 4381               	.LVL286:
 4382 1a76 8823      		tst r24
 4383 1a78 01F0      		breq .+2
 4384 1a7a 00C0      		rjmp .L305
 4385               	.LM589:
 4386 1a7c 80E0      		ldi r24,lo8(__c.2340)
 4387 1a7e 90E0      		ldi r25,hi8(__c.2340)
 4388 1a80 0E94 0000 		call uart_puts_p
 4389               	.LM590:
 4390 1a84 C301      		movw r24,r6
 4391 1a86 00C0      		rjmp .L313
 4392               	.LVL287:
 4393               	.L282:
 4394               	.LBE191:
 4395               	.LM591:
 4396 1a88 C801      		movw r24,r16
 4397 1a8a 60E0      		ldi r22,lo8(__c.2342)
 4398 1a8c 70E0      		ldi r23,hi8(__c.2342)
 4399 1a8e 45E0      		ldi r20,lo8(5)
 4400 1a90 50E0      		ldi r21,hi8(5)
 4401 1a92 0E94 0000 		call strncmp_P
 4402 1a96 892B      		or r24,r25
 4403 1a98 01F0      		breq .+2
 4404 1a9a 00C0      		rjmp .L283
 4405               	.LBB192:
 4406               	.LM592:
 4407 1a9c 81E0      		ldi r24,lo8(1)
 4408 1a9e 0E94 0000 		call get_cmd_arg
 4409 1aa2 5C01      		movw r10,r24
 4410               	.LVL288:
 4411               	.LM593:
 4412 1aa4 0097      		sbiw r24,0
 4413 1aa6 01F4      		brne .+2
 4414 1aa8 00C0      		rjmp .L305
 4415               	.LVL289:
 4416               	.LM594:
 4417 1aaa 82E0      		ldi r24,lo8(2)
 4418               	.LVL290:
 4419 1aac 0E94 0000 		call get_cmd_arg
 4420 1ab0 8C01      		movw r16,r24
 4421               	.LVL291:
 4422 1ab2 0097      		sbiw r24,0
 4423 1ab4 01F0      		breq .L284
 4424               	.LVL292:
 4425               	.LM595:
 4426 1ab6 FC01      		movw r30,r24
 4427 1ab8 0190      		ld __tmp_reg__,Z+
 4428 1aba 0020      		tst __tmp_reg__
 4429 1abc 01F4      		brne .-6
 4430 1abe 3197      		sbiw r30,1
 4431 1ac0 E81B      		sub r30,r24
 4432 1ac2 20E0      		ldi r18,lo8(0)
 4433 1ac4 30E0      		ldi r19,hi8(0)
 4434               	.LVL293:
 4435               	.LBB193:
 4436               	.LBB194:
 4437               	.LBB195:
 4438               	.LM596:
 4439 1ac6 4E2F      		mov r20,r30
 4440 1ac8 50E0      		ldi r21,lo8(0)
 4441 1aca 00C0      		rjmp .L285
 4442               	.LVL294:
 4443               	.L286:
 4444               	.LM597:
 4445 1acc F801      		movw r30,r16
 4446 1ace E20F      		add r30,r18
 4447 1ad0 F31F      		adc r31,r19
 4448 1ad2 8081      		ld r24,Z
 4449 1ad4 90E0      		ldi r25,lo8(0)
 4450 1ad6 C097      		sbiw r24,48
 4451 1ad8 0A97      		sbiw r24,10
 4452 1ada 00F0      		brlo .+2
 4453 1adc 00C0      		rjmp .L305
 4454               	.LM598:
 4455 1ade 2F5F      		subi r18,lo8(-(1))
 4456 1ae0 3F4F      		sbci r19,hi8(-(1))
 4457               	.LVL295:
 4458               	.L285:
 4459 1ae2 2417      		cp r18,r20
 4460 1ae4 3507      		cpc r19,r21
 4461 1ae6 04F0      		brlt .L286
 4462               	.LVL296:
 4463               	.L284:
 4464               	.LBE195:
 4465               	.LBE194:
 4466               	.LBE193:
 4467               	.LM599:
 4468 1ae8 6091 0000 		lds r22,dd
 4469 1aec 7091 0000 		lds r23,(dd)+1
 4470 1af0 8091 0000 		lds r24,fs
 4471 1af4 9091 0000 		lds r25,(fs)+1
 4472               	.LVL297:
 4473 1af8 A501      		movw r20,r10
 4474 1afa 0E94 0000 		call open_file_in_dir
 4475               	.LVL298:
 4476 1afe 7C01      		movw r14,r24
 4477               	.LVL299:
 4478               	.LM600:
 4479 1b00 0097      		sbiw r24,0
 4480 1b02 01F0      		breq .L287
 4481               	.LVL300:
 4482 1b04 20E0      		ldi r18,lo8(0)
 4483 1b06 30E0      		ldi r19,hi8(0)
 4484 1b08 40E0      		ldi r20,hlo8(0)
 4485 1b0a 50E0      		ldi r21,hhi8(0)
 4486               	.LVL301:
 4487 1b0c 00C0      		rjmp .L288
 4488               	.LVL302:
 4489               	.L287:
 4490               	.LM601:
 4491 1b0e 80E0      		ldi r24,lo8(__c.2346)
 4492 1b10 90E0      		ldi r25,hi8(__c.2346)
 4493               	.LVL303:
 4494 1b12 0E94 0000 		call uart_puts_p
 4495               	.LM602:
 4496 1b16 C501      		movw r24,r10
 4497 1b18 00C0      		rjmp .L313
 4498               	.LVL304:
 4499               	.L289:
 4500               	.LBB196:
 4501               	.LBB197:
 4502               	.LM603:
 4503 1b1a CA01      		movw r24,r20
 4504 1b1c B901      		movw r22,r18
 4505 1b1e 2AE0      		ldi r18,lo8(10)
 4506 1b20 30E0      		ldi r19,hi8(10)
 4507 1b22 40E0      		ldi r20,hlo8(10)
 4508 1b24 50E0      		ldi r21,hhi8(10)
 4509               	.LVL305:
 4510 1b26 0E94 0000 		call __mulsi3
 4511 1b2a 9B01      		movw r18,r22
 4512 1b2c AC01      		movw r20,r24
 4513               	.LVL306:
 4514 1b2e 8D2D      		mov r24,r13
 4515 1b30 90E0      		ldi r25,lo8(0)
 4516 1b32 C097      		sbiw r24,48
 4517 1b34 AA27      		clr r26
 4518 1b36 97FD      		sbrc r25,7
 4519 1b38 A095      		com r26
 4520 1b3a BA2F      		mov r27,r26
 4521 1b3c 280F      		add r18,r24
 4522 1b3e 391F      		adc r19,r25
 4523 1b40 4A1F      		adc r20,r26
 4524 1b42 5B1F      		adc r21,r27
 4525 1b44 0F5F      		subi r16,lo8(-(1))
 4526 1b46 1F4F      		sbci r17,hi8(-(1))
 4527               	.LVL307:
 4528               	.L288:
 4529               	.LM604:
 4530 1b48 F801      		movw r30,r16
 4531 1b4a D080      		ld r13,Z
 4532 1b4c 8D2D      		mov r24,r13
 4533 1b4e 8053      		subi r24,lo8(-(-48))
 4534 1b50 8A30      		cpi r24,lo8(10)
 4535 1b52 00F0      		brlo .L289
 4536               	.LBE197:
 4537               	.LBE196:
 4538               	.LM605:
 4539 1b54 2A83      		std Y+2,r18
 4540 1b56 3B83      		std Y+3,r19
 4541 1b58 4C83      		std Y+4,r20
 4542 1b5a 5D83      		std Y+5,r21
 4543               	.LVL308:
 4544               	.LM606:
 4545 1b5c C701      		movw r24,r14
 4546 1b5e BE01      		movw r22,r28
 4547 1b60 6E5F      		subi r22,lo8(-(2))
 4548 1b62 7F4F      		sbci r23,hi8(-(2))
 4549 1b64 40E0      		ldi r20,lo8(0)
 4550 1b66 0E94 0000 		call fat_seek_file
 4551               	.LVL309:
 4552 1b6a 8823      		tst r24
 4553 1b6c 01F4      		brne .L299
 4554               	.LM607:
 4555 1b6e 80E0      		ldi r24,lo8(__c.2349)
 4556 1b70 90E0      		ldi r25,hi8(__c.2349)
 4557 1b72 0E94 0000 		call uart_puts_p
 4558               	.LM608:
 4559 1b76 C501      		movw r24,r10
 4560 1b78 0E94 0000 		call uart_puts
 4561               	.LM609:
 4562 1b7c 8AE0      		ldi r24,lo8(10)
 4563 1b7e 0E94 0000 		call uart_putc
 4564 1b82 00C0      		rjmp .L291
 4565               	.LVL310:
 4566               	.L299:
 4567               	.LM610:
 4568 1b84 8CE3      		ldi r24,lo8(60)
 4569 1b86 0E94 0000 		call uart_putc
 4570               	.LVL311:
 4571               	.LM611:
 4572 1b8a C301      		movw r24,r6
 4573 1b8c 68E1      		ldi r22,lo8(24)
 4574 1b8e 0E94 0000 		call read_line
 4575 1b92 182F      		mov r17,r24
 4576               	.LVL312:
 4577               	.LM612:
 4578 1b94 8823      		tst r24
 4579 1b96 01F0      		breq .L291
 4580               	.LVL313:
 4581               	.LM613:
 4582 1b98 C701      		movw r24,r14
 4583               	.LVL314:
 4584 1b9a B301      		movw r22,r6
 4585 1b9c 412F      		mov r20,r17
 4586 1b9e 50E0      		ldi r21,lo8(0)
 4587 1ba0 0E94 0000 		call fat_write_file
 4588 1ba4 212F      		mov r18,r17
 4589 1ba6 30E0      		ldi r19,lo8(0)
 4590               	.LVL315:
 4591 1ba8 8217      		cp r24,r18
 4592 1baa 9307      		cpc r25,r19
 4593 1bac 01F0      		breq .L299
 4594               	.LVL316:
 4595               	.LM614:
 4596 1bae 80E0      		ldi r24,lo8(__c.2353)
 4597 1bb0 90E0      		ldi r25,hi8(__c.2353)
 4598 1bb2 0E94 0000 		call uart_puts_p
 4599               	.LVL317:
 4600               	.L291:
 4601               	.LM615:
 4602 1bb6 C701      		movw r24,r14
 4603 1bb8 00C0      		rjmp .L314
 4604               	.LVL318:
 4605               	.L283:
 4606               	.LBE192:
 4607               	.LM616:
 4608 1bba C801      		movw r24,r16
 4609 1bbc 60E0      		ldi r22,lo8(__c.2356)
 4610 1bbe 70E0      		ldi r23,hi8(__c.2356)
 4611 1bc0 46E0      		ldi r20,lo8(6)
 4612 1bc2 50E0      		ldi r21,hi8(6)
 4613 1bc4 0E94 0000 		call strncmp_P
 4614 1bc8 892B      		or r24,r25
 4615 1bca 01F4      		brne .L292
 4616               	.LM617:
 4617 1bcc 82E0      		ldi r24,lo8(2)
 4618 1bce B301      		movw r22,r6
 4619 1bd0 0E94 0000 		call too_many_arguments_error
 4620 1bd4 8823      		tst r24
 4621 1bd6 01F0      		breq .+2
 4622 1bd8 00C0      		rjmp .L305
 4623               	.LM618:
 4624 1bda 81E0      		ldi r24,lo8(1)
 4625 1bdc 0E94 0000 		call get_cmd_arg
 4626               	.LM619:
 4627 1be0 0097      		sbiw r24,0
 4628 1be2 01F4      		brne .+2
 4629 1be4 00C0      		rjmp .L305
 4630               	.LVL319:
 4631               	.LM620:
 4632 1be6 0E94 0000 		call append_file
 4633               	.LVL320:
 4634 1bea 00C0      		rjmp .L305
 4635               	.L292:
 4636               	.LM621:
 4637 1bec C801      		movw r24,r16
 4638 1bee 60E0      		ldi r22,lo8(__c.2358)
 4639 1bf0 70E0      		ldi r23,hi8(__c.2358)
 4640 1bf2 42E0      		ldi r20,lo8(2)
 4641 1bf4 50E0      		ldi r21,hi8(2)
 4642 1bf6 0E94 0000 		call strncmp_P
 4643 1bfa 892B      		or r24,r25
 4644 1bfc 01F4      		brne .L293
 4645               	.LBB198:
 4646               	.LM622:
 4647 1bfe 81E0      		ldi r24,lo8(1)
 4648 1c00 0E94 0000 		call get_cmd_arg
 4649 1c04 8C01      		movw r16,r24
 4650               	.LVL321:
 4651               	.LM623:
 4652 1c06 0097      		sbiw r24,0
 4653 1c08 01F4      		brne .+2
 4654 1c0a 00C0      		rjmp .L305
 4655               	.LVL322:
 4656               	.LM624:
 4657 1c0c 8091 0000 		lds r24,dd
 4658 1c10 9091 0000 		lds r25,(dd)+1
 4659               	.LVL323:
 4660 1c14 B801      		movw r22,r16
 4661 1c16 AE01      		movw r20,r28
 4662 1c18 415C      		subi r20,lo8(-(63))
 4663 1c1a 5F4F      		sbci r21,hi8(-(63))
 4664 1c1c 0E94 0000 		call fat_create_dir
 4665 1c20 8823      		tst r24
 4666 1c22 01F0      		breq .+2
 4667 1c24 00C0      		rjmp .L305
 4668               	.LM625:
 4669 1c26 80E0      		ldi r24,lo8(__c.2361)
 4670 1c28 90E0      		ldi r25,hi8(__c.2361)
 4671 1c2a 00C0      		rjmp .L310
 4672               	.L293:
 4673               	.LBE198:
 4674               	.LM626:
 4675 1c2c C801      		movw r24,r16
 4676 1c2e 60E0      		ldi r22,lo8(__c.2363)
 4677 1c30 70E0      		ldi r23,hi8(__c.2363)
 4678 1c32 0E94 0000 		call strcmp_P
 4679 1c36 892B      		or r24,r25
 4680 1c38 01F4      		brne .L294
 4681               	.LM627:
 4682 1c3a 0E94 0000 		call sd_raw_sync
 4683 1c3e 8823      		tst r24
 4684 1c40 01F0      		breq .+2
 4685 1c42 00C0      		rjmp .L305
 4686               	.LM628:
 4687 1c44 80E0      		ldi r24,lo8(__c.2365)
 4688 1c46 90E0      		ldi r25,hi8(__c.2365)
 4689               	.L311:
 4690 1c48 0E94 0000 		call uart_puts_p
 4691 1c4c 00C0      		rjmp .L305
 4692               	.L294:
 4693               	.LM629:
 4694 1c4e 80E0      		ldi r24,lo8(__c.2367)
 4695 1c50 90E0      		ldi r25,hi8(__c.2367)
 4696               	.L310:
 4697 1c52 0E94 0000 		call uart_puts_p
 4698               	.LM630:
 4699 1c56 C801      		movw r24,r16
 4700               	.LVL324:
 4701               	.L313:
 4702 1c58 0E94 0000 		call uart_puts
 4703               	.L315:
 4704               	.LM631:
 4705 1c5c 8AE0      		ldi r24,lo8(10)
 4706 1c5e 0E94 0000 		call uart_putc
 4707 1c62 00C0      		rjmp .L305
 4708               	.LBE153:
 4709               	.LFE13:
 4711               	.global	read_config_file
 4713               	read_config_file:
 4714               	.LFB6:
 4715               	.LM632:
 4716 1c64 4F92      		push r4
 4717 1c66 5F92      		push r5
 4718 1c68 6F92      		push r6
 4719 1c6a 7F92      		push r7
 4720 1c6c 8F92      		push r8
 4721 1c6e 9F92      		push r9
 4722 1c70 AF92      		push r10
 4723 1c72 BF92      		push r11
 4724 1c74 CF92      		push r12
 4725 1c76 DF92      		push r13
 4726 1c78 EF92      		push r14
 4727 1c7a FF92      		push r15
 4728 1c7c 0F93      		push r16
 4729 1c7e 1F93      		push r17
 4730 1c80 DF93      		push r29
 4731 1c82 CF93      		push r28
 4732 1c84 CDB7      		in r28,__SP_L__
 4733 1c86 DEB7      		in r29,__SP_H__
 4734 1c88 CF54      		subi r28,lo8(-(-79))
 4735 1c8a D040      		sbci r29,hi8(-(-79))
 4736 1c8c 0FB6      		in __tmp_reg__,__SREG__
 4737 1c8e F894      		cli
 4738 1c90 DEBF      		out __SP_H__,r29
 4739 1c92 0FBE      		out __SREG__,__tmp_reg__
 4740 1c94 CDBF      		out __SP_L__,r28
 4741               	/* prologue: function */
 4742               	/* frame size = 79 */
 4743               	.LM633:
 4744 1c96 E8E0      		ldi r30,lo8(8)
 4745 1c98 EE2E      		mov r14,r30
 4746 1c9a F12C      		mov r15,__zero_reg__
 4747 1c9c EC0E      		add r14,r28
 4748 1c9e FD1E      		adc r15,r29
 4749 1ca0 C701      		movw r24,r14
 4750 1ca2 60E0      		ldi r22,lo8(.LC3)
 4751 1ca4 70E0      		ldi r23,hi8(.LC3)
 4752 1ca6 0E94 0000 		call strcpy
 4753               	.LM634:
 4754 1caa 6091 0000 		lds r22,dd
 4755 1cae 7091 0000 		lds r23,(dd)+1
 4756 1cb2 8091 0000 		lds r24,fs
 4757 1cb6 9091 0000 		lds r25,(fs)+1
 4758 1cba A701      		movw r20,r14
 4759 1cbc 9E01      		movw r18,r28
 4760 1cbe 2B5D      		subi r18,lo8(-(37))
 4761 1cc0 3F4F      		sbci r19,hi8(-(37))
 4762 1cc2 00E0      		ldi r16,lo8(0)
 4763 1cc4 0E94 0000 		call find_file_in_dir
 4764 1cc8 8823      		tst r24
 4765 1cca 01F4      		brne .+2
 4766 1ccc 00C0      		rjmp .L320
 4767               	.LBB199:
 4768               	.LM635:
 4769 1cce 6091 0000 		lds r22,dd
 4770 1cd2 7091 0000 		lds r23,(dd)+1
 4771 1cd6 8091 0000 		lds r24,fs
 4772 1cda 9091 0000 		lds r25,(fs)+1
 4773 1cde A701      		movw r20,r14
 4774 1ce0 0E94 0000 		call open_file_in_dir
 4775 1ce4 7C01      		movw r14,r24
 4776               	.LVL325:
 4777               	.LM636:
 4778 1ce6 0097      		sbiw r24,0
 4779 1ce8 01F4      		brne .L321
 4780               	.LVL326:
 4781               	.LM637:
 4782 1cea 80E0      		ldi r24,lo8(__c.2099)
 4783 1cec 90E0      		ldi r25,hi8(__c.2099)
 4784               	.LVL327:
 4785 1cee 0E94 0000 		call uart_puts_p
 4786 1cf2 00C0      		rjmp .L341
 4787               	.LVL328:
 4788               	.L321:
 4789               	.LM638:
 4790 1cf4 75E1      		ldi r23,lo8(21)
 4791 1cf6 A72E      		mov r10,r23
 4792 1cf8 B12C      		mov r11,__zero_reg__
 4793 1cfa AC0E      		add r10,r28
 4794 1cfc BD1E      		adc r11,r29
 4795 1cfe B501      		movw r22,r10
 4796 1d00 40E1      		ldi r20,lo8(16)
 4797 1d02 50E0      		ldi r21,hi8(16)
 4798 1d04 0E94 0000 		call fat_read_file
 4799               	.LVL329:
 4800 1d08 682E      		mov r6,r24
 4801               	.LVL330:
 4802               	.LM639:
 4803 1d0a C701      		movw r24,r14
 4804 1d0c 0E94 0000 		call fat_close_file
 4805 1d10 11E0      		ldi r17,lo8(1)
 4806               	.LVL331:
 4807 1d12 9924      		clr r9
 4808               	.LVL332:
 4809 1d14 6AE1      		ldi r22,lo8(26)
 4810 1d16 862E      		mov r8,r22
 4811               	.LVL333:
 4812 1d18 53E0      		ldi r21,lo8(3)
 4813 1d1a 752E      		mov r7,r21
 4814               	.LVL334:
 4815 1d1c DD24      		clr r13
 4816               	.LVL335:
 4817 1d1e CC24      		clr r12
 4818               	.LVL336:
 4819               	.LM640:
 4820 1d20 7E01      		movw r14,r28
 4821               	.LVL337:
 4822 1d22 0894      		sec
 4823 1d24 E11C      		adc r14,__zero_reg__
 4824 1d26 F11C      		adc r15,__zero_reg__
 4825               	.LM641:
 4826 1d28 2501      		movw r4,r10
 4827 1d2a 47E0      		ldi r20,lo8(7)
 4828 1d2c A42E      		mov r10,r20
 4829 1d2e B12C      		mov r11,__zero_reg__
 4830 1d30 AC0E      		add r10,r28
 4831 1d32 BD1E      		adc r11,r29
 4832 1d34 00C0      		rjmp .L323
 4833               	.LVL338:
 4834               	.L325:
 4835               	.LM642:
 4836 1d36 ED93      		st X+,r30
 4837               	.LM643:
 4838 1d38 D394      		inc r13
 4839               	.LVL339:
 4840               	.L336:
 4841 1d3a 8A2F      		mov r24,r26
 4842 1d3c 8E19      		sub r24,r14
 4843               	.LM644:
 4844 1d3e F201      		movw r30,r4
 4845 1d40 ED0D      		add r30,r13
 4846 1d42 F11D      		adc r31,__zero_reg__
 4847 1d44 E081      		ld r30,Z
 4848 1d46 EC32      		cpi r30,lo8(44)
 4849 1d48 01F0      		breq .L324
 4850 1d4a D614      		cp r13,r6
 4851 1d4c 00F4      		brsh .L324
 4852 1d4e AA15      		cp r26,r10
 4853 1d50 BB05      		cpc r27,r11
 4854 1d52 01F4      		brne .L325
 4855               	.L324:
 4856               	.LM645:
 4857 1d54 F701      		movw r30,r14
 4858 1d56 E80F      		add r30,r24
 4859 1d58 F11D      		adc r31,__zero_reg__
 4860 1d5a 1082      		st Z,__zero_reg__
 4861               	.LM646:
 4862 1d5c CC20      		tst r12
 4863 1d5e 01F4      		brne .L326
 4864               	.LM647:
 4865 1d60 C701      		movw r24,r14
 4866               	.LVL340:
 4867 1d62 60E0      		ldi r22,lo8(.LC6)
 4868 1d64 70E0      		ldi r23,hi8(.LC6)
 4869 1d66 0E94 0000 		call strcmp
 4870 1d6a 0097      		sbiw r24,0
 4871 1d6c 01F4      		brne .L327
 4872 1d6e 10E0      		ldi r17,lo8(0)
 4873 1d70 00C0      		rjmp .L328
 4874               	.L327:
 4875               	.LM648:
 4876 1d72 C701      		movw r24,r14
 4877 1d74 60E0      		ldi r22,lo8(.LC7)
 4878 1d76 70E0      		ldi r23,hi8(.LC7)
 4879 1d78 0E94 0000 		call strcmp
 4880 1d7c 0097      		sbiw r24,0
 4881 1d7e 01F4      		brne .L329
 4882 1d80 14E0      		ldi r17,lo8(4)
 4883 1d82 00C0      		rjmp .L328
 4884               	.L329:
 4885               	.LM649:
 4886 1d84 C701      		movw r24,r14
 4887 1d86 60E0      		ldi r22,lo8(.LC8)
 4888 1d88 70E0      		ldi r23,hi8(.LC8)
 4889 1d8a 0E94 0000 		call strcmp
 4890 1d8e 0097      		sbiw r24,0
 4891 1d90 01F4      		brne .+2
 4892 1d92 00C0      		rjmp .L330
 4893               	.LM650:
 4894 1d94 C701      		movw r24,r14
 4895 1d96 60E0      		ldi r22,lo8(.LC9)
 4896 1d98 70E0      		ldi r23,hi8(.LC9)
 4897 1d9a 0E94 0000 		call strcmp
 4898 1d9e 0097      		sbiw r24,0
 4899 1da0 01F4      		brne .L331
 4900 1da2 15E0      		ldi r17,lo8(5)
 4901 1da4 00C0      		rjmp .L328
 4902               	.L331:
 4903               	.LM651:
 4904 1da6 C701      		movw r24,r14
 4905 1da8 60E0      		ldi r22,lo8(.LC10)
 4906 1daa 70E0      		ldi r23,hi8(.LC10)
 4907 1dac 0E94 0000 		call strcmp
 4908 1db0 0097      		sbiw r24,0
 4909 1db2 01F4      		brne .L332
 4910 1db4 12E0      		ldi r17,lo8(2)
 4911 1db6 00C0      		rjmp .L328
 4912               	.L332:
 4913               	.LM652:
 4914 1db8 C701      		movw r24,r14
 4915 1dba 60E0      		ldi r22,lo8(.LC11)
 4916 1dbc 70E0      		ldi r23,hi8(.LC11)
 4917 1dbe 0E94 0000 		call strcmp
 4918 1dc2 0097      		sbiw r24,0
 4919 1dc4 01F4      		brne .L330
 4920 1dc6 13E0      		ldi r17,lo8(3)
 4921 1dc8 00C0      		rjmp .L328
 4922               	.LVL341:
 4923               	.L326:
 4924               	.LM653:
 4925 1dca 81E0      		ldi r24,lo8(1)
 4926               	.LVL342:
 4927 1dcc C816      		cp r12,r24
 4928 1dce 01F4      		brne .L333
 4929               	.LM654:
 4930 1dd0 C701      		movw r24,r14
 4931 1dd2 0E94 0000 		call atoi
 4932 1dd6 882E      		mov r8,r24
 4933               	.LM655:
 4934 1dd8 1816      		cp __zero_reg__,r24
 4935 1dda 04F0      		brlt .L328
 4936               	.LVL343:
 4937 1ddc 3AE1      		ldi r19,lo8(26)
 4938 1dde 832E      		mov r8,r19
 4939               	.LVL344:
 4940 1de0 00C0      		rjmp .L328
 4941               	.L333:
 4942               	.LM656:
 4943 1de2 82E0      		ldi r24,lo8(2)
 4944 1de4 C816      		cp r12,r24
 4945 1de6 01F4      		brne .L334
 4946               	.LM657:
 4947 1de8 C701      		movw r24,r14
 4948 1dea 0E94 0000 		call atoi
 4949 1dee 782E      		mov r7,r24
 4950               	.LM658:
 4951 1df0 8150      		subi r24,lo8(-(-1))
 4952 1df2 8A30      		cpi r24,lo8(10)
 4953 1df4 00F0      		brlo .L328
 4954 1df6 23E0      		ldi r18,lo8(3)
 4955 1df8 722E      		mov r7,r18
 4956 1dfa 00C0      		rjmp .L328
 4957               	.L334:
 4958               	.LM659:
 4959 1dfc 83E0      		ldi r24,lo8(3)
 4960 1dfe C816      		cp r12,r24
 4961 1e00 01F4      		brne .L335
 4962               	.LM660:
 4963 1e02 C701      		movw r24,r14
 4964 1e04 0E94 0000 		call atoi
 4965 1e08 982E      		mov r9,r24
 4966               	.LM661:
 4967 1e0a 8150      		subi r24,lo8(-(-1))
 4968 1e0c 8530      		cpi r24,lo8(5)
 4969 1e0e 00F0      		brlo .L328
 4970 1e10 9924      		clr r9
 4971 1e12 00C0      		rjmp .L328
 4972               	.L330:
 4973 1e14 11E0      		ldi r17,lo8(1)
 4974               	.LVL345:
 4975               	.L328:
 4976               	.LM662:
 4977 1e16 C394      		inc r12
 4978               	.LM663:
 4979 1e18 D394      		inc r13
 4980               	.L323:
 4981 1e1a D614      		cp r13,r6
 4982 1e1c 00F4      		brsh .L335
 4983 1e1e D701      		movw r26,r14
 4984 1e20 00C0      		rjmp .L336
 4985               	.L335:
 4986               	.LM664:
 4987 1e22 8091 0000 		lds r24,setting_uart_speed
 4988 1e26 1817      		cp r17,r24
 4989 1e28 01F0      		breq .L337
 4990               	.LM665:
 4991 1e2a 81E0      		ldi r24,lo8(1)
 4992 1e2c 90E0      		ldi r25,hi8(1)
 4993 1e2e 612F      		mov r22,r17
 4994 1e30 0E94 0000 		call EEPROM_write
 4995               	.LM666:
 4996 1e34 1093 0000 		sts setting_uart_speed,r17
 4997               	.LM667:
 4998 1e38 812F      		mov r24,r17
 4999 1e3a 0E94 0000 		call uart_init
 5000               	.L337:
 5001               	.LM668:
 5002 1e3e 8091 0000 		lds r24,setting_system_mode
 5003 1e42 9816      		cp r9,r24
 5004 1e44 01F0      		breq .L338
 5005               	.LM669:
 5006 1e46 9092 0000 		sts setting_system_mode,r9
 5007               	.LM670:
 5008 1e4a 82E0      		ldi r24,lo8(2)
 5009 1e4c 90E0      		ldi r25,hi8(2)
 5010 1e4e 692D      		mov r22,r9
 5011 1e50 0E94 0000 		call EEPROM_write
 5012               	.L338:
 5013               	.LM671:
 5014 1e54 8091 0000 		lds r24,setting_escape_character
 5015 1e58 8816      		cp r8,r24
 5016 1e5a 01F0      		breq .L339
 5017               	.LM672:
 5018 1e5c 8092 0000 		sts setting_escape_character,r8
 5019               	.LM673:
 5020 1e60 85E0      		ldi r24,lo8(5)
 5021 1e62 90E0      		ldi r25,hi8(5)
 5022 1e64 682D      		mov r22,r8
 5023 1e66 0E94 0000 		call EEPROM_write
 5024               	.L339:
 5025               	.LM674:
 5026 1e6a 8091 0000 		lds r24,setting_max_escape_character
 5027 1e6e 7816      		cp r7,r24
 5028 1e70 01F0      		breq .L320
 5029               	.LM675:
 5030 1e72 7092 0000 		sts setting_max_escape_character,r7
 5031               	.LM676:
 5032 1e76 86E0      		ldi r24,lo8(6)
 5033 1e78 90E0      		ldi r25,hi8(6)
 5034 1e7a 672D      		mov r22,r7
 5035 1e7c 0E94 0000 		call EEPROM_write
 5036               	.L320:
 5037               	.LBE199:
 5038               	.LM677:
 5039 1e80 0E94 0000 		call record_config_file
 5040               	.LVL346:
 5041               	.L341:
 5042               	/* epilogue start */
 5043               	.LM678:
 5044 1e84 C15B      		subi r28,lo8(-(79))
 5045 1e86 DF4F      		sbci r29,hi8(-(79))
 5046 1e88 0FB6      		in __tmp_reg__,__SREG__
 5047 1e8a F894      		cli
 5048 1e8c DEBF      		out __SP_H__,r29
 5049 1e8e 0FBE      		out __SREG__,__tmp_reg__
 5050 1e90 CDBF      		out __SP_L__,r28
 5051 1e92 CF91      		pop r28
 5052 1e94 DF91      		pop r29
 5053 1e96 1F91      		pop r17
 5054               	.LVL347:
 5055 1e98 0F91      		pop r16
 5056 1e9a FF90      		pop r15
 5057 1e9c EF90      		pop r14
 5058               	.LVL348:
 5059 1e9e DF90      		pop r13
 5060               	.LVL349:
 5061 1ea0 CF90      		pop r12
 5062               	.LVL350:
 5063 1ea2 BF90      		pop r11
 5064 1ea4 AF90      		pop r10
 5065 1ea6 9F90      		pop r9
 5066               	.LVL351:
 5067 1ea8 8F90      		pop r8
 5068               	.LVL352:
 5069 1eaa 7F90      		pop r7
 5070               	.LVL353:
 5071 1eac 6F90      		pop r6
 5072               	.LVL354:
 5073 1eae 5F90      		pop r5
 5074 1eb0 4F90      		pop r4
 5075 1eb2 0895      		ret
 5076               	.LFE6:
 5078               	.global	ioinit
 5080               	ioinit:
 5081               	.LFB5:
 5082               	.LM679:
 5083 1eb4 1F93      		push r17
 5084               	/* prologue: function */
 5085               	/* frame size = 0 */
 5086               	.LM680:
 5087 1eb6 82E0      		ldi r24,lo8(2)
 5088 1eb8 85BD      		out 69-32,r24
 5089               	.LM681:
 5090 1eba 8091 6400 		lds r24,100
 5091 1ebe 896C      		ori r24,lo8(-55)
 5092 1ec0 8093 6400 		sts 100,r24
 5093               	.LM682:
 5094 1ec4 83B7      		in r24,83-32
 5095 1ec6 817F      		andi r24,lo8(-15)
 5096 1ec8 83BF      		out 83-32,r24
 5097               	.LM683:
 5098 1eca 83B7      		in r24,83-32
 5099 1ecc 8160      		ori r24,lo8(1)
 5100 1ece 83BF      		out 83-32,r24
 5101               	.LM684:
 5102 1ed0 559A      		sbi 42-32,5
 5103               	.LM685:
 5104 1ed2 259A      		sbi 36-32,5
 5105               	.LM686:
 5106 1ed4 0E94 0000 		call check_emergency_reset
 5107 1ed8 8823      		tst r24
 5108 1eda 01F0      		breq .L343
 5109               	.LM687:
 5110 1edc 0E94 0000 		call set_default_settings
 5111               	.LM688:
 5112 1ee0 0E94 0000 		call init_media
 5113               	.LM689:
 5114 1ee4 0E94 0000 		call record_config_file
 5115               	.LM690:
 5116 1ee8 5D9A      		sbi 43-32,5
 5117               	.LM691:
 5118 1eea 2D9A      		sbi 37-32,5
 5119               	.LM692:
 5120 1eec 10E2      		ldi r17,lo8(32)
 5121               	.L344:
 5122               	.LM693:
 5123 1eee 84EF      		ldi r24,lo8(500)
 5124 1ef0 91E0      		ldi r25,hi8(500)
 5125 1ef2 0E94 0000 		call delay_ms
 5126               	.LM694:
 5127 1ef6 8BB1      		in r24,43-32
 5128 1ef8 8127      		eor r24,r17
 5129 1efa 8BB9      		out 43-32,r24
 5130               	.LM695:
 5131 1efc 85B1      		in r24,37-32
 5132 1efe 8127      		eor r24,r17
 5133 1f00 85B9      		out 37-32,r24
 5134 1f02 00C0      		rjmp .L344
 5135               	.L343:
 5136               	.LM696:
 5137 1f04 0E94 0000 		call read_system_settings
 5138               	.LM697:
 5139 1f08 8091 0000 		lds r24,setting_uart_speed
 5140 1f0c 0E94 0000 		call uart_init
 5141               	.LM698:
 5142 1f10 80E0      		ldi r24,lo8(__c.2062)
 5143 1f12 90E0      		ldi r25,hi8(__c.2062)
 5144 1f14 0E94 0000 		call uart_puts_p
 5145               	.LM699:
 5146 1f18 0E94 0000 		call init_media
 5147               	.LM700:
 5148 1f1c 80E0      		ldi r24,lo8(__c.2064)
 5149 1f1e 90E0      		ldi r25,hi8(__c.2064)
 5150 1f20 0E94 0000 		call uart_puts_p
 5151               	.LM701:
 5152 1f24 0E94 0000 		call read_config_file
 5153               	/* epilogue start */
 5154               	.LM702:
 5155 1f28 1F91      		pop r17
 5156 1f2a 0895      		ret
 5157               	.LFE5:
 5159               	.global	main
 5161               	main:
 5162               	.LFB4:
 5163               	.LM703:
 5164               	/* prologue: function */
 5165               	/* frame size = 0 */
 5166               	.LM704:
 5167 1f2c 0E94 0000 		call ioinit
 5168               	.LM705:
 5169 1f30 8091 0000 		lds r24,setting_system_mode
 5170 1f34 8823      		tst r24
 5171 1f36 01F4      		brne .L347
 5172               	.LM706:
 5173 1f38 0E94 0000 		call newlog
 5174               	.L347:
 5175               	.LM707:
 5176 1f3c 8091 0000 		lds r24,setting_system_mode
 5177 1f40 8130      		cpi r24,lo8(1)
 5178 1f42 01F4      		brne .L348
 5179               	.LM708:
 5180 1f44 0E94 0000 		call seqlog
 5181               	.L348:
 5182               	.LM709:
 5183 1f48 0E94 0000 		call command_shell
 5184               	.LM710:
 5185 1f4c 80E0      		ldi r24,lo8(0)
 5186 1f4e 90E0      		ldi r25,hi8(0)
 5187               	/* epilogue start */
 5188 1f50 0895      		ret
 5189               	.LFE4:
 5191               		.section	.progmem.data,"a",@progbits
 5194               	__c.3068:
 5195 0000 293A 2000 		.string	"): "
 5198               	__c.3066:
 5199 0004 746F 6F20 		.string	"too many arguments("
 5199      6D61 6E79 
 5199      2061 7267 
 5199      756D 656E 
 5199      7473 2800 
 5202               	__c.2993:
 5203 0018 4578 6974 		.string	"Exiting\n"
 5203      696E 670A 
 5203      00
 5206               	__c.2991:
 5207 0021 7800      		.string	"x"
 5210               	__c.2989:
 5211 0023 0A00      		.string	"\n"
 5214               	__c.2987:
 5215 0025 0A4E 756D 		.string	"\nNumber of escape characters needed: "
 5215      6265 7220 
 5215      6F66 2065 
 5215      7363 6170 
 5215      6520 6368 
 5218               	__c.2982:
 5219 004b 456E 7465 		.string	"Enter number of escape characters to look for: "
 5219      7220 6E75 
 5219      6D62 6572 
 5219      206F 6620 
 5219      6573 6361 
 5222               	__c.2979:
 5223 007b 3600      		.string	"6"
 5226               	__c.2977:
 5227 007d 0A00      		.string	"\n"
 5230               	__c.2975:
 5231 007f 0A4E 6577 		.string	"\nNew escape character: "
 5231      2065 7363 
 5231      6170 6520 
 5231      6368 6172 
 5231      6163 7465 
 5234               	__c.2973:
 5235 0097 456E 7465 		.string	"Enter a new escape character: "
 5235      7220 6120 
 5235      6E65 7720 
 5235      6573 6361 
 5235      7065 2063 
 5238               	__c.2971:
 5239 00b6 3500      		.string	"5"
 5242               	__c.2969:
 5243 00b8 4E65 7720 		.string	"New file number reset to zero\n"
 5243      6669 6C65 
 5243      206E 756D 
 5243      6265 7220 
 5243      7265 7365 
 5246               	__c.2967:
 5247 00d7 3400      		.string	"4"
 5250               	__c.2965:
 5251 00d9 436F 6D6D 		.string	"Command prompt\n"
 5251      616E 6420 
 5251      7072 6F6D 
 5251      7074 0A00 
 5254               	__c.2963:
 5255 00e9 3300      		.string	"3"
 5258               	__c.2961:
 5259 00eb 4170 7065 		.string	"Append file logging\n"
 5259      6E64 2066 
 5259      696C 6520 
 5259      6C6F 6767 
 5259      696E 670A 
 5262               	__c.2959:
 5263 0100 3200      		.string	"2"
 5266               	__c.2957:
 5267 0102 4E65 7720 		.string	"New file logging\n"
 5267      6669 6C65 
 5267      206C 6F67 
 5267      6769 6E67 
 5267      0A00 
 5270               	__c.2955:
 5271 0114 3100      		.string	"1"
 5274               	__c.2951:
 5275 0116 7829 2045 		.string	"x) Exit\n"
 5275      7869 740A 
 5275      00
 5278               	__c.2949:
 5279 011f 3629 204E 		.string	"6) Number of escape characters\n"
 5279      756D 6265 
 5279      7220 6F66 
 5279      2065 7363 
 5279      6170 6520 
 5282               	__c.2947:
 5283 013f 3529 204E 		.string	"5) New escape character\n"
 5283      6577 2065 
 5283      7363 6170 
 5283      6520 6368 
 5283      6172 6163 
 5286               	__c.2945:
 5287 0158 3429 2052 		.string	"4) Reset new file number\n"
 5287      6573 6574 
 5287      206E 6577 
 5287      2066 696C 
 5287      6520 6E75 
 5290               	__c.2943:
 5291 0172 3329 2043 		.string	"3) Command prompt\n"
 5291      6F6D 6D61 
 5291      6E64 2070 
 5291      726F 6D70 
 5291      740A 00
 5294               	__c.2941:
 5295 0185 3229 2041 		.string	"2) Append file logging\n"
 5295      7070 656E 
 5295      6420 6669 
 5295      6C65 206C 
 5295      6F67 6769 
 5298               	__c.2939:
 5299 019d 3129 204E 		.string	"1) New file logging\n"
 5299      6577 2066 
 5299      696C 6520 
 5299      6C6F 6767 
 5299      696E 670A 
 5302               	__c.2937:
 5303 01b2 4368 616E 		.string	"Change to:\n"
 5303      6765 2074 
 5303      6F3A 0A00 
 5306               	__c.2935:
 5307 01be 0A00      		.string	"\n"
 5310               	__c.2933:
 5311 01c0 2078 2000 		.string	" x "
 5314               	__c.2931:
 5315 01c4 4375 7272 		.string	"Current escape character and amount: "
 5315      656E 7420 
 5315      6573 6361 
 5315      7065 2063 
 5315      6861 7261 
 5318               	__c.2929:
 5319 01ea 0A00      		.string	"\n"
 5322               	__c.2927:
 5323 01ec 436F 6D6D 		.string	"Command"
 5323      616E 6400 
 5326               	__c.2925:
 5327 01f4 4170 7065 		.string	"Append file"
 5327      6E64 2066 
 5327      696C 6500 
 5330               	__c.2923:
 5331 0200 4E65 7720 		.string	"New file"
 5331      6669 6C65 
 5331      00
 5334               	__c.2921:
 5335 0209 4375 7272 		.string	"Current boot mode: "
 5335      656E 7420 
 5335      626F 6F74 
 5335      206D 6F64 
 5335      653A 2000 
 5338               	__c.2919:
 5339 021d 0A53 7973 		.string	"\nSystem Configuration\n"
 5339      7465 6D20 
 5339      436F 6E66 
 5339      6967 7572 
 5339      6174 696F 
 5342               	__c.2902:
 5343 0234 0A45 7869 		.string	"\nExiting\n"
 5343      7469 6E67 
 5343      0A00 
 5346               	__c.2900:
 5347 023e 7800      		.string	"x"
 5350               	__c.2898:
 5351 0240 0A47 6F69 		.string	"\nGoing to 115200bps...\n"
 5351      6E67 2074 
 5351      6F20 3131 
 5351      3532 3030 
 5351      6270 732E 
 5354               	__c.2896:
 5355 0258 3600      		.string	"6"
 5358               	__c.2894:
 5359 025a 0A47 6F69 		.string	"\nGoing to 57600bps...\n"
 5359      6E67 2074 
 5359      6F20 3537 
 5359      3630 3062 
 5359      7073 2E2E 
 5362               	__c.2892:
 5363 0271 3500      		.string	"5"
 5366               	__c.2890:
 5367 0273 0A47 6F69 		.string	"\nGoing to 19200bps...\n"
 5367      6E67 2074 
 5367      6F20 3139 
 5367      3230 3062 
 5367      7073 2E2E 
 5370               	__c.2888:
 5371 028a 3400      		.string	"4"
 5374               	__c.2886:
 5375 028c 0A47 6F69 		.string	"\nGoing to 9600bps...\n"
 5375      6E67 2074 
 5375      6F20 3936 
 5375      3030 6270 
 5375      732E 2E2E 
 5378               	__c.2884:
 5379 02a2 3300      		.string	"3"
 5382               	__c.2882:
 5383 02a4 0A47 6F69 		.string	"\nGoing to 4800bps...\n"
 5383      6E67 2074 
 5383      6F20 3438 
 5383      3030 6270 
 5383      732E 2E2E 
 5386               	__c.2880:
 5387 02ba 3200      		.string	"2"
 5390               	__c.2878:
 5391 02bc 0A47 6F69 		.string	"\nGoing to 2400bps...\n"
 5391      6E67 2074 
 5391      6F20 3234 
 5391      3030 6270 
 5391      732E 2E2E 
 5394               	__c.2876:
 5395 02d2 3100      		.string	"1"
 5398               	__c.2872:
 5399 02d4 7829 2045 		.string	"x) Exit\n"
 5399      7869 740A 
 5399      00
 5402               	__c.2870:
 5403 02dd 3629 2031 		.string	"6) 115200 bps\n"
 5403      3135 3230 
 5403      3020 6270 
 5403      730A 00
 5406               	__c.2868:
 5407 02ec 3529 2035 		.string	"5) 57600 bps\n"
 5407      3736 3030 
 5407      2062 7073 
 5407      0A00 
 5410               	__c.2866:
 5411 02fa 3429 2031 		.string	"4) 19200 bps\n"
 5411      3932 3030 
 5411      2062 7073 
 5411      0A00 
 5414               	__c.2864:
 5415 0308 3329 2039 		.string	"3) 9600 bps\n"
 5415      3630 3020 
 5415      6270 730A 
 5415      00
 5418               	__c.2862:
 5419 0315 3229 2034 		.string	"2) 4800 bps\n"
 5419      3830 3020 
 5419      6270 730A 
 5419      00
 5422               	__c.2860:
 5423 0322 3129 2032 		.string	"1) 2400 bps\n"
 5423      3430 3020 
 5423      6270 730A 
 5423      00
 5426               	__c.2858:
 5427 032f 4368 616E 		.string	"Change to:\n"
 5427      6765 2074 
 5427      6F3A 0A00 
 5430               	__c.2856:
 5431 033b 3030 2062 		.string	"00 bps\n"
 5431      7073 0A00 
 5434               	__c.2854:
 5435 0343 3131 3532 		.string	"1152"
 5435      00
 5438               	__c.2852:
 5439 0348 3537 3600 		.string	"576"
 5442               	__c.2850:
 5443 034c 3139 3200 		.string	"192"
 5446               	__c.2848:
 5447 0350 3936 00   		.string	"96"
 5450               	__c.2846:
 5451 0353 3234 00   		.string	"24"
 5454               	__c.2844:
 5455 0356 3438 00   		.string	"48"
 5458               	__c.2842:
 5459 0359 4375 7272 		.string	"Current: "
 5459      656E 743A 
 5459      2000 
 5462               	__c.2840:
 5463 0363 0A42 6175 		.string	"\nBaud Configuration:\n"
 5463      6420 436F 
 5463      6E66 6967 
 5463      7572 6174 
 5463      696F 6E3A 
 5466               	__c.2833:
 5467 0379 6261 7564 		.string	"baud\t\t\t: Menu to configure baud rate\n"
 5467      0909 093A 
 5467      204D 656E 
 5467      7520 746F 
 5467      2063 6F6E 
 5470               	__c.2831:
 5471 039f 7365 7409 		.string	"set\t\t\t: Menu to configure system boot mode\n"
 5471      0909 3A20 
 5471      4D65 6E75 
 5471      2074 6F20 
 5471      636F 6E66 
 5474               	__c.2829:
 5475 03cb 0A4D 656E 		.string	"\nMenus:\n"
 5475      7573 3A0A 
 5475      00
 5478               	__c.2827:
 5479 03d4 7379 6E63 		.string	"sync\t\t\t: Ensures all buffered data is written to the card\n"
 5479      0909 093A 
 5479      2045 6E73 
 5479      7572 6573 
 5479      2061 6C6C 
 5482               	__c.2825:
 5483 040f 696E 6974 		.string	"init\t\t\t: Reinitializes and reopens the memory card\n"
 5483      0909 093A 
 5483      2052 6569 
 5483      6E69 7469 
 5483      616C 697A 
 5486               	__c.2823:
 5487 0443 6469 736B 		.ascii	"disk\t\t\t: Shows card m"
 5487      0909 093A 
 5487      2053 686F 
 5487      7773 2063 
 5487      6172 6420 
 5488 0458 616E 7566 		.string	"anufacturer, status, filesystem capacity and free storage space\n"
 5488      6163 7475 
 5488      7265 722C 
 5488      2073 7461 
 5488      7475 732C 
 5491               	__c.2821:
 5492 0499 7369 7A65 		.string	"size <file>\t\t: Write size of file to terminal\n"
 5492      203C 6669 
 5492      6C65 3E09 
 5492      093A 2057 
 5492      7269 7465 
 5495               	__c.2819:
 5496 04c8 7265 6164 		.ascii	"read <file> <start> <length>\t\t: Writes ASCII <length> part"
 5496      203C 6669 
 5496      6C65 3E20 
 5496      3C73 7461 
 5496      7274 3E20 
 5497 0502 7320 6F66 		.ascii	"s of <file> to the terminal sta"
 5497      203C 6669 
 5497      6C65 3E20 
 5497      746F 2074 
 5497      6865 2074 
 5498 0521 7274 696E 		.string	"rting at <start>. Ommit <start> and <length> to read whole file\n"
 5498      6720 6174 
 5498      203C 7374 
 5498      6172 743E 
 5498      2E20 4F6D 
 5501               	__c.2817:
 5502 0562 6361 7420 		.string	"cat <file>\t\t: Writes a hexdump of <file> to the terminal\n"
 5502      3C66 696C 
 5502      653E 0909 
 5502      3A20 5772 
 5502      6974 6573 
 5505               	__c.2815:
 5506 059c 6C73 0909 		.ascii	"ls\t\t\t: Shows the content of the current directory. Use "
 5506      093A 2053 
 5506      686F 7773 
 5506      2074 6865 
 5506      2063 6F6E 
 5507 05d3 7769 6C64 		.string	"wildcard to do a wildcard listing of files in current directory\n"
 5507      6361 7264 
 5507      2074 6F20 
 5507      646F 2061 
 5507      2077 696C 
 5510               	__c.2813:
 5511 0614 6364 202E 		.string	"cd ..\t\t: Changes to lower directory in tree\n"
 5511      2E09 093A 
 5511      2043 6861 
 5511      6E67 6573 
 5511      2074 6F20 
 5514               	__c.2811:
 5515 0641 6364 20   		.ascii	"cd "
 5516 0644 3C64 6972 		.string	"<directory>\t\t: Changes current working directory to <directory>\n"
 5516      6563 746F 
 5516      7279 3E09 
 5516      093A 2043 
 5516      6861 6E67 
 5519               	__c.2809:
 5520 0685 6D64 203C 		.string	"md <directory>\t: Creates a directory called <directory>\n"
 5520      6469 7265 
 5520      6374 6F72 
 5520      793E 093A 
 5520      2043 7265 
 5523               	__c.2807:
 5524 06be 726D 203C 		.ascii	"rm <file>\t\t:"
 5524      6669 6C65 
 5524      3E09 093A 
 5525 06ca 2044 656C 		.string	" Deletes <file>. Use wildcard to do a wildcard removal of files\n"
 5525      6574 6573 
 5525      203C 6669 
 5525      6C65 3E2E 
 5525      2055 7365 
 5528               	__c.2805:
 5529 070b 7772 6974 		.ascii	"write <file> <offset>\t: Writes text to <file>, starting fro"
 5529      6520 3C66 
 5529      696C 653E 
 5529      203C 6F66 
 5529      6673 6574 
 5530 0746 6D20 3C6F 		.ascii	"m <offset>. The text"
 5530      6666 7365 
 5530      743E 2E20 
 5530      5468 6520 
 5530      7465 7874 
 5531 075a 2069 7320 		.string	" is read from the UART, line by line. Finish with an empty line\n"
 5531      7265 6164 
 5531      2066 726F 
 5531      6D20 7468 
 5531      6520 5541 
 5534               	__c.2803:
 5535 079b 6170 7065 		.ascii	"append <file>\t\t: Appends text to end of <file>. The text i"
 5535      6E64 203C 
 5535      6669 6C65 
 5535      3E09 093A 
 5535      2041 7070 
 5536 07d5 7320 7265 		.ascii	"s read from the UART in "
 5536      6164 2066 
 5536      726F 6D20 
 5536      7468 6520 
 5536      5541 5254 
 5537 07ed 6120 7374 		.string	"a stream and is not echoed. Finish by sending Ctrl+z (ASCII 26)\n"
 5537      7265 616D 
 5537      2061 6E64 
 5537      2069 7320 
 5537      6E6F 7420 
 5540               	__c.2801:
 5541 082e 6E65 7720 		.string	"new <file>\t\t: Creates <file>\n"
 5541      3C66 696C 
 5541      653E 0909 
 5541      3A20 4372 
 5541      6561 7465 
 5544               	__c.2799:
 5545 084c 4176 6169 		.string	"Available commands:\n"
 5545      6C61 626C 
 5545      6520 636F 
 5545      6D6D 616E 
 5545      6473 3A0A 
 5548               	__c.2797:
 5549 0861 0A4F 7065 		.string	"\nOpenLog v1.61\n"
 5549      6E4C 6F67 
 5549      2076 312E 
 5549      3631 0A00 
 5552               	__c.2502:
 5553 0871 7E00      		.string	"~"
 5556               	__c.2500:
 5557 0873 6572 726F 		.string	"error writing to file\n"
 5557      7220 7772 
 5557      6974 696E 
 5557      6720 746F 
 5557      2066 696C 
 5560               	__c.2498:
 5561 088a 6572 726F 		.string	"error writing to file\n"
 5561      7220 7772 
 5561      6974 696E 
 5561      6720 746F 
 5561      2066 696C 
 5564               	__c.2495:
 5565 08a1 6572 726F 		.string	"error writing to file\n"
 5565      7220 7772 
 5565      6974 696E 
 5565      6720 746F 
 5565      2066 696C 
 5568               	__c.2492:
 5569 08b8 6572 726F 		.string	"error writing to file\n"
 5569      7220 7772 
 5569      6974 696E 
 5569      6720 746F 
 5569      2066 696C 
 5572               	__c.2479:
 5573 08cf 6572 726F 		.string	"error writing to file\n"
 5573      7220 7772 
 5573      6974 696E 
 5573      6720 746F 
 5573      2066 696C 
 5576               	__c.2477:
 5577 08e6 6572 726F 		.string	"error writing to file\n"
 5577      7220 7772 
 5577      6974 696E 
 5577      6720 746F 
 5577      2066 696C 
 5580               	__c.2469:
 5581 08fd 2165 7272 		.string	"!error seeking on "
 5581      6F72 2073 
 5581      6565 6B69 
 5581      6E67 206F 
 5581      6E20 00
 5584               	__c.2466:
 5585 0910 2165 7272 		.string	"!error opening "
 5585      6F72 206F 
 5585      7065 6E69 
 5585      6E67 2000 
 5588               	__c.2367:
 5589 0920 756E 6B6E 		.string	"unknown command: "
 5589      6F77 6E20 
 5589      636F 6D6D 
 5589      616E 643A 
 5589      2000 
 5592               	__c.2365:
 5593 0932 6572 726F 		.string	"error syncing disk\n"
 5593      7220 7379 
 5593      6E63 696E 
 5593      6720 6469 
 5593      736B 0A00 
 5596               	__c.2363:
 5597 0946 7379 6E63 		.string	"sync"
 5597      00
 5600               	__c.2361:
 5601 094b 6572 726F 		.string	"error creating directory: "
 5601      7220 6372 
 5601      6561 7469 
 5601      6E67 2064 
 5601      6972 6563 
 5604               	__c.2358:
 5605 0966 6D64 00   		.string	"md"
 5608               	__c.2356:
 5609 0969 6170 7065 		.string	"append"
 5609      6E64 00
 5612               	__c.2353:
 5613 0970 6572 726F 		.string	"error writing to file\n"
 5613      7220 7772 
 5613      6974 696E 
 5613      6720 746F 
 5613      2066 696C 
 5616               	__c.2349:
 5617 0987 6572 726F 		.string	"error seeking on "
 5617      7220 7365 
 5617      656B 696E 
 5617      6720 6F6E 
 5617      2000 
 5620               	__c.2346:
 5621 0999 6572 726F 		.string	"error opening "
 5621      7220 6F70 
 5621      656E 696E 
 5621      6720 00
 5624               	__c.2342:
 5625 09a8 7772 6974 		.string	"write"
 5625      6500 
 5628               	__c.2340:
 5629 09ae 6572 726F 		.string	"error creating file: "
 5629      7220 6372 
 5629      6561 7469 
 5629      6E67 2066 
 5629      696C 653A 
 5632               	__c.2337:
 5633 09c4 6E65 7700 		.string	"new"
 5636               	__c.2332:
 5637 09c8 6572 726F 		.string	"error deleting file: "
 5637      7220 6465 
 5637      6C65 7469 
 5637      6E67 2066 
 5637      696C 653A 
 5640               	__c.2329:
 5641 09de 726D 00   		.string	"rm"
 5644               	__c.2326:
 5645 09e1 7369 7A65 		.string	"size"
 5645      00
 5648               	__c.2324:
 5649 09e6 6572 726F 		.string	"error reading disk info\n"
 5649      7220 7265 
 5649      6164 696E 
 5649      6720 6469 
 5649      736B 2069 
 5652               	__c.2322:
 5653 09ff 6469 736B 		.string	"disk"
 5653      00
 5656               	__c.2315:
 5657 0a04 6572 726F 		.string	"error seeking on "
 5657      7220 7365 
 5657      656B 696E 
 5657      6720 6F6E 
 5657      2000 
 5660               	__c.2312:
 5661 0a16 6572 726F 		.string	"error opening "
 5661      7220 6F70 
 5661      656E 696E 
 5661      6720 00
 5664               	__c.2309:
 5665 0a25 7265 6164 		.string	"read"
 5665      00
 5668               	__c.2297:
 5669 0a2a 6572 726F 		.string	"error opening "
 5669      7220 6F70 
 5669      656E 696E 
 5669      6720 00
 5672               	__c.2294:
 5673 0a39 6361 7400 		.string	"cat"
 5676               	__c.2284:
 5677 0a3d 6C73 00   		.string	"ls"
 5680               	__c.2282:
 5681 0a40 6469 7265 		.string	"directory not found: "
 5681      6374 6F72 
 5681      7920 6E6F 
 5681      7420 666F 
 5681      756E 643A 
 5684               	__c.2278:
 5685 0a56 6364 00   		.string	"cd"
 5688               	__c.2276:
 5689 0a59 7365 7400 		.string	"set"
 5692               	__c.2274:
 5693 0a5d 6261 7564 		.string	"baud"
 5693      00
 5696               	__c.2272:
 5697 0a62 6865 6C70 		.string	"help"
 5697      00
 5700               	__c.2270:
 5701 0a67 3F00      		.string	"?"
 5704               	__c.2268:
 5705 0a69 4669 6C65 		.string	"File system initialized\n"
 5705      2073 7973 
 5705      7465 6D20 
 5705      696E 6974 
 5705      6961 6C69 
 5708               	__c.2266:
 5709 0a82 436C 6F73 		.string	"Closing down file system\n"
 5709      696E 6720 
 5709      646F 776E 
 5709      2066 696C 
 5709      6520 7379 
 5712               	__c.2264:
 5713 0a9c 696E 6974 		.string	"init"
 5713      00
 5716               	__c.2771:
 5717 0aa1 6672 6565 		.string	"free:   "
 5717      3A20 2020 
 5717      00
 5720               	__c.2769:
 5721 0aaa 666F 726D 		.string	"format: "
 5721      6174 3A20 
 5721      00
 5724               	__c.2767:
 5725 0ab3 7772 2E70 		.string	"wr.pr.: "
 5725      722E 3A20 
 5725      00
 5728               	__c.2765:
 5729 0abc 636F 7079 		.string	"copy:   "
 5729      3A20 2020 
 5729      00
 5732               	__c.2763:
 5733 0ac5 4D42 0A00 		.string	"MB\n"
 5736               	__c.2761:
 5737 0ac9 7369 7A65 		.string	"size:   "
 5737      3A20 2020 
 5737      00
 5740               	__c.2759:
 5741 0ad2 6461 7465 		.string	"date:   "
 5741      3A20 2020 
 5741      00
 5744               	__c.2757:
 5745 0adb 7365 7269 		.string	"serial: 0x"
 5745      616C 3A20 
 5745      3078 00
 5748               	__c.2755:
 5749 0ae6 7265 763A 		.string	"rev:    "
 5749      2020 2020 
 5749      00
 5752               	__c.2753:
 5753 0aef 7072 6F64 		.string	"prod:   "
 5753      3A20 2020 
 5753      00
 5756               	__c.2751:
 5757 0af8 6F65 6D3A 		.string	"oem:    "
 5757      2020 2020 
 5757      00
 5760               	__c.2749:
 5761 0b01 6D61 6E75 		.string	"manuf:  0x"
 5761      663A 2020 
 5761      3078 00
 5764               	__c.2244:
 5765 0b0c 2154 6F6F 		.string	"!Too many logs:2!"
 5765      206D 616E 
 5765      7920 6C6F 
 5765      6773 3A32 
 5765      2100 
 5768               	__c.2240:
 5769 0b1e 2154 6F6F 		.string	"!Too many logs:1!"
 5769      206D 616E 
 5769      7920 6C6F 
 5769      6773 3A31 
 5769      2100 
 5772               	__c.2228:
 5773 0b30 4572 726F 		.string	"Error creating SEQLOG\n"
 5773      7220 6372 
 5773      6561 7469 
 5773      6E67 2053 
 5773      4551 4C4F 
 5776               	__c.2225:
 5777 0b47 4372 6561 		.string	"Creating SEQLOG\n"
 5777      7469 6E67 
 5777      2053 4551 
 5777      4C4F 470A 
 5777      00
 5780               	__c.2099:
 5781 0b58 6572 726F 		.string	"error opening config file"
 5781      7220 6F70 
 5781      656E 696E 
 5781      6720 636F 
 5781      6E66 6967 
 5784               	__c.2064:
 5785 0b72 3200      		.string	"2"
 5788               	__c.2062:
 5789 0b74 3100      		.string	"1"
 5790               		.lcomm cmd_arg,12
 5791               		.comm input_buffer,700,1
 5792               		.comm general_buffer,25,1
 5793               		.comm read_spot,2,1
 5794               		.comm checked_spot,2,1
 5795               		.comm fs,2,1
 5796               		.comm partition,2,1
 5797               		.comm dd,2,1
 5798               		.comm setting_uart_speed,1,1
 5799               		.comm setting_system_mode,1,1
 5800               		.comm setting_escape_character,1,1
 5801               		.comm setting_max_escape_character,1,1
 6074               	.Letext0:
DEFINED SYMBOLS
                            *ABS*:00000000 main.c
     /tmp/ccWrYzNm.s:2      *ABS*:0000003f __SREG__
     /tmp/ccWrYzNm.s:3      *ABS*:0000003e __SP_H__
     /tmp/ccWrYzNm.s:4      *ABS*:0000003d __SP_L__
     /tmp/ccWrYzNm.s:5      *ABS*:00000034 __CCP__
     /tmp/ccWrYzNm.s:6      *ABS*:00000000 __tmp_reg__
     /tmp/ccWrYzNm.s:7      *ABS*:00000001 __zero_reg__
     /tmp/ccWrYzNm.s:18     .text:00000000 __vector_18
                            *COM*:00000002 read_spot
                            *COM*:000002bc input_buffer
     /tmp/ccWrYzNm.s:76     .text:0000006a EEPROM_write
     /tmp/ccWrYzNm.s:104    .text:0000007a set_default_settings
     /tmp/ccWrYzNm.s:136    .text:000000a4 EEPROM_read
     /tmp/ccWrYzNm.s:163    .text:000000b2 read_system_settings
                            *COM*:00000001 setting_uart_speed
                            *COM*:00000001 setting_system_mode
                            *COM*:00000001 setting_escape_character
                            *COM*:00000001 setting_max_escape_character
     /tmp/ccWrYzNm.s:242    .text:00000136 delay_us
     /tmp/ccWrYzNm.s:292    .text:00000164 delay_ms
     /tmp/ccWrYzNm.s:324    .text:00000180 blink_error
     /tmp/ccWrYzNm.s:377    .text:000001bc check_emergency_reset
     /tmp/ccWrYzNm.s:441    .text:00000204 count_cmd_args
                             .bss:00000000 cmd_arg
     /tmp/ccWrYzNm.s:476    .text:00000226 add_cmd_arg
     /tmp/ccWrYzNm.s:522    .text:00000256 is_number
     /tmp/ccWrYzNm.s:572    .text:00000284 wildcmp
     /tmp/ccWrYzNm.s:680    .text:000002fe print_menu
     /tmp/ccWrYzNm.s:5548   .progmem.data:00000861 __c.2797
     /tmp/ccWrYzNm.s:5544   .progmem.data:0000084c __c.2799
     /tmp/ccWrYzNm.s:5540   .progmem.data:0000082e __c.2801
     /tmp/ccWrYzNm.s:5534   .progmem.data:0000079b __c.2803
     /tmp/ccWrYzNm.s:5528   .progmem.data:0000070b __c.2805
     /tmp/ccWrYzNm.s:5523   .progmem.data:000006be __c.2807
     /tmp/ccWrYzNm.s:5519   .progmem.data:00000685 __c.2809
     /tmp/ccWrYzNm.s:5514   .progmem.data:00000641 __c.2811
     /tmp/ccWrYzNm.s:5510   .progmem.data:00000614 __c.2813
     /tmp/ccWrYzNm.s:5505   .progmem.data:0000059c __c.2815
     /tmp/ccWrYzNm.s:5501   .progmem.data:00000562 __c.2817
     /tmp/ccWrYzNm.s:5495   .progmem.data:000004c8 __c.2819
     /tmp/ccWrYzNm.s:5491   .progmem.data:00000499 __c.2821
     /tmp/ccWrYzNm.s:5486   .progmem.data:00000443 __c.2823
     /tmp/ccWrYzNm.s:5482   .progmem.data:0000040f __c.2825
     /tmp/ccWrYzNm.s:5478   .progmem.data:000003d4 __c.2827
     /tmp/ccWrYzNm.s:5474   .progmem.data:000003cb __c.2829
     /tmp/ccWrYzNm.s:5470   .progmem.data:0000039f __c.2831
     /tmp/ccWrYzNm.s:5466   .progmem.data:00000379 __c.2833
     /tmp/ccWrYzNm.s:768    .text:00000398 too_many_arguments_error
     /tmp/ccWrYzNm.s:5198   .progmem.data:00000004 __c.3066
     /tmp/ccWrYzNm.s:5194   .progmem.data:00000000 __c.3068
     /tmp/ccWrYzNm.s:828    .text:000003e2 split_cmd_line_args
     /tmp/ccWrYzNm.s:935    .text:0000045c get_cmd_arg
                            *COM*:00000019 general_buffer
     /tmp/ccWrYzNm.s:999    .text:000004b2 read_line
     /tmp/ccWrYzNm.s:1124   .text:00000550 read_buffer
     /tmp/ccWrYzNm.s:1247   .text:000005e2 init_media
                            *COM*:00000002 partition
                            *COM*:00000002 fs
                            *COM*:00000002 dd
     /tmp/ccWrYzNm.s:1341   .text:0000069c find_file_in_dir
     /tmp/ccWrYzNm.s:1414   .text:000006fc open_file_in_dir
     /tmp/ccWrYzNm.s:1479   .text:0000075e append_file
     /tmp/ccWrYzNm.s:5584   .progmem.data:00000910 __c.2466
     /tmp/ccWrYzNm.s:5580   .progmem.data:000008fd __c.2469
                            *COM*:00000002 checked_spot
     /tmp/ccWrYzNm.s:5576   .progmem.data:000008e6 __c.2477
     /tmp/ccWrYzNm.s:5572   .progmem.data:000008cf __c.2479
     /tmp/ccWrYzNm.s:5568   .progmem.data:000008b8 __c.2492
     /tmp/ccWrYzNm.s:5564   .progmem.data:000008a1 __c.2495
     /tmp/ccWrYzNm.s:5560   .progmem.data:0000088a __c.2498
     /tmp/ccWrYzNm.s:5556   .progmem.data:00000873 __c.2500
     /tmp/ccWrYzNm.s:5552   .progmem.data:00000871 __c.2502
     /tmp/ccWrYzNm.s:1944   .text:00000aa2 newlog
     /tmp/ccWrYzNm.s:5768   .progmem.data:00000b1e __c.2240
     /tmp/ccWrYzNm.s:5764   .progmem.data:00000b0c __c.2244
     /tmp/ccWrYzNm.s:2184   .text:00000c1e seqlog
     /tmp/ccWrYzNm.s:5776   .progmem.data:00000b47 __c.2225
     /tmp/ccWrYzNm.s:5772   .progmem.data:00000b30 __c.2228
     /tmp/ccWrYzNm.s:2302   .text:00000cb8 record_config_file
     /tmp/ccWrYzNm.s:2668   .text:00000f4e system_menu
     /tmp/ccWrYzNm.s:5338   .progmem.data:0000021d __c.2919
     /tmp/ccWrYzNm.s:5334   .progmem.data:00000209 __c.2921
     /tmp/ccWrYzNm.s:5330   .progmem.data:00000200 __c.2923
     /tmp/ccWrYzNm.s:5326   .progmem.data:000001f4 __c.2925
     /tmp/ccWrYzNm.s:5322   .progmem.data:000001ec __c.2927
     /tmp/ccWrYzNm.s:5318   .progmem.data:000001ea __c.2929
     /tmp/ccWrYzNm.s:5314   .progmem.data:000001c4 __c.2931
     /tmp/ccWrYzNm.s:5310   .progmem.data:000001c0 __c.2933
     /tmp/ccWrYzNm.s:5306   .progmem.data:000001be __c.2935
     /tmp/ccWrYzNm.s:5302   .progmem.data:000001b2 __c.2937
     /tmp/ccWrYzNm.s:5298   .progmem.data:0000019d __c.2939
     /tmp/ccWrYzNm.s:5294   .progmem.data:00000185 __c.2941
     /tmp/ccWrYzNm.s:5290   .progmem.data:00000172 __c.2943
     /tmp/ccWrYzNm.s:5286   .progmem.data:00000158 __c.2945
     /tmp/ccWrYzNm.s:5282   .progmem.data:0000013f __c.2947
     /tmp/ccWrYzNm.s:5278   .progmem.data:0000011f __c.2949
     /tmp/ccWrYzNm.s:5274   .progmem.data:00000116 __c.2951
     /tmp/ccWrYzNm.s:5270   .progmem.data:00000114 __c.2955
     /tmp/ccWrYzNm.s:5266   .progmem.data:00000102 __c.2957
     /tmp/ccWrYzNm.s:5262   .progmem.data:00000100 __c.2959
     /tmp/ccWrYzNm.s:5258   .progmem.data:000000eb __c.2961
     /tmp/ccWrYzNm.s:5254   .progmem.data:000000e9 __c.2963
     /tmp/ccWrYzNm.s:5250   .progmem.data:000000d9 __c.2965
     /tmp/ccWrYzNm.s:5246   .progmem.data:000000d7 __c.2967
     /tmp/ccWrYzNm.s:5242   .progmem.data:000000b8 __c.2969
     /tmp/ccWrYzNm.s:5238   .progmem.data:000000b6 __c.2971
     /tmp/ccWrYzNm.s:5234   .progmem.data:00000097 __c.2973
     /tmp/ccWrYzNm.s:5230   .progmem.data:0000007f __c.2975
     /tmp/ccWrYzNm.s:5226   .progmem.data:0000007d __c.2977
     /tmp/ccWrYzNm.s:5222   .progmem.data:0000007b __c.2979
     /tmp/ccWrYzNm.s:5218   .progmem.data:0000004b __c.2982
     /tmp/ccWrYzNm.s:5214   .progmem.data:00000025 __c.2987
     /tmp/ccWrYzNm.s:5210   .progmem.data:00000023 __c.2989
     /tmp/ccWrYzNm.s:5206   .progmem.data:00000021 __c.2991
     /tmp/ccWrYzNm.s:5202   .progmem.data:00000018 __c.2993
     /tmp/ccWrYzNm.s:2990   .text:00001188 baud_menu
     /tmp/ccWrYzNm.s:5462   .progmem.data:00000363 __c.2840
     /tmp/ccWrYzNm.s:5458   .progmem.data:00000359 __c.2842
     /tmp/ccWrYzNm.s:5454   .progmem.data:00000356 __c.2844
     /tmp/ccWrYzNm.s:5450   .progmem.data:00000353 __c.2846
     /tmp/ccWrYzNm.s:5446   .progmem.data:00000350 __c.2848
     /tmp/ccWrYzNm.s:5442   .progmem.data:0000034c __c.2850
     /tmp/ccWrYzNm.s:5438   .progmem.data:00000348 __c.2852
     /tmp/ccWrYzNm.s:5434   .progmem.data:00000343 __c.2854
     /tmp/ccWrYzNm.s:5430   .progmem.data:0000033b __c.2856
     /tmp/ccWrYzNm.s:5426   .progmem.data:0000032f __c.2858
     /tmp/ccWrYzNm.s:5422   .progmem.data:00000322 __c.2860
     /tmp/ccWrYzNm.s:5418   .progmem.data:00000315 __c.2862
     /tmp/ccWrYzNm.s:5414   .progmem.data:00000308 __c.2864
     /tmp/ccWrYzNm.s:5410   .progmem.data:000002fa __c.2866
     /tmp/ccWrYzNm.s:5406   .progmem.data:000002ec __c.2868
     /tmp/ccWrYzNm.s:5402   .progmem.data:000002dd __c.2870
     /tmp/ccWrYzNm.s:5398   .progmem.data:000002d4 __c.2872
     /tmp/ccWrYzNm.s:5394   .progmem.data:000002d2 __c.2876
     /tmp/ccWrYzNm.s:5390   .progmem.data:000002bc __c.2878
     /tmp/ccWrYzNm.s:5386   .progmem.data:000002ba __c.2880
     /tmp/ccWrYzNm.s:5382   .progmem.data:000002a4 __c.2882
     /tmp/ccWrYzNm.s:5378   .progmem.data:000002a2 __c.2884
     /tmp/ccWrYzNm.s:5374   .progmem.data:0000028c __c.2886
     /tmp/ccWrYzNm.s:5370   .progmem.data:0000028a __c.2888
     /tmp/ccWrYzNm.s:5366   .progmem.data:00000273 __c.2890
     /tmp/ccWrYzNm.s:5362   .progmem.data:00000271 __c.2892
     /tmp/ccWrYzNm.s:5358   .progmem.data:0000025a __c.2894
     /tmp/ccWrYzNm.s:5354   .progmem.data:00000258 __c.2896
     /tmp/ccWrYzNm.s:5350   .progmem.data:00000240 __c.2898
     /tmp/ccWrYzNm.s:5346   .progmem.data:0000023e __c.2900
     /tmp/ccWrYzNm.s:5342   .progmem.data:00000234 __c.2902
     /tmp/ccWrYzNm.s:3264   .text:00001350 command_shell
     /tmp/ccWrYzNm.s:5712   .progmem.data:00000a9c __c.2264
     /tmp/ccWrYzNm.s:5708   .progmem.data:00000a82 __c.2266
     /tmp/ccWrYzNm.s:5704   .progmem.data:00000a69 __c.2268
     /tmp/ccWrYzNm.s:5700   .progmem.data:00000a67 __c.2270
     /tmp/ccWrYzNm.s:5696   .progmem.data:00000a62 __c.2272
     /tmp/ccWrYzNm.s:5692   .progmem.data:00000a5d __c.2274
     /tmp/ccWrYzNm.s:5688   .progmem.data:00000a59 __c.2276
     /tmp/ccWrYzNm.s:5684   .progmem.data:00000a56 __c.2278
     /tmp/ccWrYzNm.s:5680   .progmem.data:00000a40 __c.2282
     /tmp/ccWrYzNm.s:5676   .progmem.data:00000a3d __c.2284
     /tmp/ccWrYzNm.s:5672   .progmem.data:00000a39 __c.2294
     /tmp/ccWrYzNm.s:5668   .progmem.data:00000a2a __c.2297
     /tmp/ccWrYzNm.s:5664   .progmem.data:00000a25 __c.2309
     /tmp/ccWrYzNm.s:5660   .progmem.data:00000a16 __c.2312
     /tmp/ccWrYzNm.s:5656   .progmem.data:00000a04 __c.2315
     /tmp/ccWrYzNm.s:5652   .progmem.data:000009ff __c.2322
     /tmp/ccWrYzNm.s:5760   .progmem.data:00000b01 __c.2749
     /tmp/ccWrYzNm.s:5756   .progmem.data:00000af8 __c.2751
     /tmp/ccWrYzNm.s:5752   .progmem.data:00000aef __c.2753
     /tmp/ccWrYzNm.s:5748   .progmem.data:00000ae6 __c.2755
     /tmp/ccWrYzNm.s:5744   .progmem.data:00000adb __c.2757
     /tmp/ccWrYzNm.s:5740   .progmem.data:00000ad2 __c.2759
     /tmp/ccWrYzNm.s:5736   .progmem.data:00000ac9 __c.2761
     /tmp/ccWrYzNm.s:5732   .progmem.data:00000ac5 __c.2763
     /tmp/ccWrYzNm.s:5728   .progmem.data:00000abc __c.2765
     /tmp/ccWrYzNm.s:5724   .progmem.data:00000ab3 __c.2767
     /tmp/ccWrYzNm.s:5720   .progmem.data:00000aaa __c.2769
     /tmp/ccWrYzNm.s:5716   .progmem.data:00000aa1 __c.2771
     /tmp/ccWrYzNm.s:5648   .progmem.data:000009e6 __c.2324
     /tmp/ccWrYzNm.s:5644   .progmem.data:000009e1 __c.2326
     /tmp/ccWrYzNm.s:5640   .progmem.data:000009de __c.2329
     /tmp/ccWrYzNm.s:5636   .progmem.data:000009c8 __c.2332
     /tmp/ccWrYzNm.s:5632   .progmem.data:000009c4 __c.2337
     /tmp/ccWrYzNm.s:5628   .progmem.data:000009ae __c.2340
     /tmp/ccWrYzNm.s:5624   .progmem.data:000009a8 __c.2342
     /tmp/ccWrYzNm.s:5620   .progmem.data:00000999 __c.2346
     /tmp/ccWrYzNm.s:5616   .progmem.data:00000987 __c.2349
     /tmp/ccWrYzNm.s:5612   .progmem.data:00000970 __c.2353
     /tmp/ccWrYzNm.s:5608   .progmem.data:00000969 __c.2356
     /tmp/ccWrYzNm.s:5604   .progmem.data:00000966 __c.2358
     /tmp/ccWrYzNm.s:5600   .progmem.data:0000094b __c.2361
     /tmp/ccWrYzNm.s:5596   .progmem.data:00000946 __c.2363
     /tmp/ccWrYzNm.s:5592   .progmem.data:00000932 __c.2365
     /tmp/ccWrYzNm.s:5588   .progmem.data:00000920 __c.2367
     /tmp/ccWrYzNm.s:4713   .text:00001c64 read_config_file
     /tmp/ccWrYzNm.s:5780   .progmem.data:00000b58 __c.2099
     /tmp/ccWrYzNm.s:5080   .text:00001eb4 ioinit
     /tmp/ccWrYzNm.s:5788   .progmem.data:00000b74 __c.2062
     /tmp/ccWrYzNm.s:5784   .progmem.data:00000b72 __c.2064
     /tmp/ccWrYzNm.s:5161   .text:00001f2c main

UNDEFINED SYMBOLS
uart_puts_p
uart_putw_dec
uart_puts
uart_putc
strncpy
memset
uart_getc
sd_raw_init
fat_clear_handles
sd_raw_read
sd_raw_read_interval
sd_raw_write
sd_raw_write_interval
partition_open
fat_open
fat_get_dir_entry_of_path
fat_open_dir
strcmp
fat_reset_dir
fat_read_dir
fat_open_file
fat_seek_file
fat_close_file
fat_write_file
sd_raw_sync
sprintf
fat_create_file
strcpy
fat_delete_file
strcat
uart_putdw_dec
strcmp_P
fat_close
partition_close
strncmp_P
fat_close_dir
uart_putdw_hex
uart_putc_hex
fat_read_file
__mulsi3
sd_raw_get_info
fat_get_fs_free
fat_get_fs_size
fat_create_dir
atoi
uart_init
__do_copy_data
__do_clear_bss
